
uart.elf:     file format elf32-littleriscv
uart.elf
architecture: riscv:rv32, flags 0x00000112:
EXEC_P, HAS_SYMS, D_PAGED
start address 0x00000000

Program Header:
0x70000003 off    0x0000486a vaddr 0x00000000 paddr 0x00000000 align 2**0
         filesz 0x00000034 memsz 0x00000000 flags r--
    LOAD off    0x00001000 vaddr 0x00000000 paddr 0x00000000 align 2**12
         filesz 0x00000004 memsz 0x00000004 flags r-x
    LOAD off    0x00002000 vaddr 0x20000000 paddr 0x00000004 align 2**12
         filesz 0x00000794 memsz 0x00000794 flags r-x
    LOAD off    0x00002798 vaddr 0x00000798 paddr 0x00000798 align 2**12
         filesz 0x0000109e memsz 0x000010a0 flags rwx
    LOAD off    0x00004794 vaddr 0x20000794 paddr 0x00001838 align 2**12
         filesz 0x00000070 memsz 0x0000008c flags rw-

Sections:
Idx Name                 Size      VMA       LMA       File off  Algn  Flags
  0 .init                00000004  00000000  00000000  00001000  2**1  CONTENTS, ALLOC, LOAD, READONLY, CODE
  1 .highcode_initlalign 00000000  00000004  00000004  00004804  2**0  CONTENTS
  2 .highcodelalign      00000000  00000004  00000004  00004804  2**0  CONTENTS
  3 .highcode            00000794  20000000  00000004  00002000  2**1  CONTENTS, ALLOC, LOAD, READONLY, CODE
  4 .text                0000109c  00000798  00000798  00002798  2**2  CONTENTS, ALLOC, LOAD, READONLY, CODE
  5 .vector_handler      00000002  00001834  00001834  00003834  2**0  CONTENTS, ALLOC, LOAD, READONLY, CODE
  6 .fini                00000002  00001836  00001836  00003836  2**0  ALLOC, CODE
  7 .dlalign             00000000  00001838  00001838  00004804  2**0  CONTENTS
  8 .data                00000070  20000794  00001838  00004794  2**2  CONTENTS, ALLOC, LOAD, DATA
  9 .bss                 0000001c  20000804  000018a8  00004804  2**2  ALLOC
 10 .stack               00000000  20003000  20003000  00004804  2**0  CONTENTS
 11 .comment             00000066  00000000  00000000  00004804  2**0  CONTENTS, READONLY
 12 .riscv.attributes    00000034  00000000  00000000  0000486a  2**0  CONTENTS, READONLY
SYMBOL TABLE:
00000000 l    d  .init	00000000 .init
00000004 l    d  .highcode_initlalign	00000000 .highcode_initlalign
00000004 l    d  .highcodelalign	00000000 .highcodelalign
20000000 l    d  .highcode	00000000 .highcode
00000798 l    d  .text	00000000 .text
00001834 l    d  .vector_handler	00000000 .vector_handler
00001836 l    d  .fini	00000000 .fini
00001838 l    d  .dlalign	00000000 .dlalign
20000794 l    d  .data	00000000 .data
20000804 l    d  .bss	00000000 .bss
20003000 l    d  .stack	00000000 .stack
00000000 l    d  .comment	00000000 .comment
00000000 l    d  .riscv.attributes	00000000 .riscv.attributes
00000000 l    df *ABS*	00000000 startup_CH572.o
00001834 l       .vector_handler	00000000 ENDOCE_IRQHandler
00000000 l    df *ABS*	00000000 uart.c
00000000 l    df *ABS*	00000000 RTC.c
200000e0 l     F .highcode	00000018 SYS_GetClockValue
200000f8 l     F .highcode	0000000e SYS_SetPendingIRQ
00000000 l    df *ABS*	00000000 CH57x_sys.c
200007f8 l     O .data	00000004 curbrk.0
00000000 l    df *ABS*	00000000 ISP572.c
200004c6 l       .highcode	00000000 .loop52
200004d4 l       .highcode	00000000 .loop63
200004e2 l       .highcode	00000000 .loop74
200005e2 l       .highcode	00000000 .loop247
00000000 l    df *ABS*	00000000 lib_a-memset.o
00000000 l    df *ABS*	00000000 CH57x_clk.c
00000000 l    df *ABS*	00000000 CH57x_gpio.c
00000000 l    df *ABS*	00000000 CH57x_uart.c
00000000 l    df *ABS*	00000000 lib_a-puts.o
00000000 l    df *ABS*	00000000 lib_a-wbuf.o
00000000 l    df *ABS*	00000000 lib_a-wsetup.o
00000000 l    df *ABS*	00000000 lib_a-fflush.o
00000000 l    df *ABS*	00000000 lib_a-findfp.o
00001046 l     F .text	0000006a std
00000000 l    df *ABS*	00000000 lib_a-fwalk.o
00000000 l    df *ABS*	00000000 lib_a-lock.o
00000000 l    df *ABS*	00000000 lib_a-makebuf.o
00000000 l    df *ABS*	00000000 lib_a-nano-freer.o
00000000 l    df *ABS*	00000000 lib_a-nano-mallocr.o
00001430 l     F .text	00000054 sbrk_aligned
00000000 l    df *ABS*	00000000 lib_a-sbrkr.o
00000000 l    df *ABS*	00000000 lib_a-stdio.o
00000000 l    df *ABS*	00000000 lib_a-writer.o
00000000 l    df *ABS*	00000000 lib_a-closer.o
00000000 l    df *ABS*	00000000 lib_a-fstatr.o
00000000 l    df *ABS*	00000000 lib_a-isattyr.o
00000000 l    df *ABS*	00000000 lib_a-lseekr.o
00000000 l    df *ABS*	00000000 lib_a-mlock.o
00000000 l    df *ABS*	00000000 lib_a-readr.o
00000000 l    df *ABS*	00000000 close.o
00000000 l    df *ABS*	00000000 fstat.o
00000000 l    df *ABS*	00000000 isatty.o
00000000 l    df *ABS*	00000000 lseek.o
00000000 l    df *ABS*	00000000 read.o
00000000 l    df *ABS*	00000000 lib_a-impure.o
20000794 l     O .data	00000060 impure_data
000016e8 g     F .text	00000026 _isatty_r
00000bae g     F .text	0000010e _puts_r
0000170e g     F .text	0000002a _lseek_r
200004e2 g     F .highcode	0000000e FLASH_ROM_OUT
00001834  w      .vector_handler	00000000 CMP_IRQHandler
20000ff8 g       .data	00000000 __global_pointer$
00001632 g     F .text	00000036 __sseek
00001118 g     F .text	00000068 __sinit
00000cc8 g     F .text	000000c0 __swbuf_r
20000452 g     F .highcode	0000000e mDelayuS
200003cc  w    F .highcode	00000086 HardFault_Handler
000010ba g     F .text	00000046 __sfmoreglue
0000173e g     F .text	00000006 __malloc_unlock
00001834  w      .vector_handler	00000000 GPIOA_IRQHandler
00001834  w      .vector_handler	00000000 SysTick_Handler
00001834  w      .vector_handler	00000000 NMI_Handler
00001834  w      .vector_handler	00000000 UART_IRQHandler
000016c0 g     F .text	00000028 _fstat_r
2000081c g     O .bss	00000004 errno
200005a6 g     F .highcode	00000060 FLASH_CMD_ROM_WRITE
20000804 g       .bss	00000000 _sbss
200004d4 g     F .highcode	0000000e FLASH_ROM_IN
00000a2e g     F .text	0000004a UART_DefInit
0000085a g     F .text	00000050 HSECFG_Capacitance
000010b0 g     F .text	0000000a _cleanup_r
00000cbc g     F .text	0000000c puts
00001834  w      .vector_handler	00000000 SWI_Handler
0000177a g     F .text	0000000c _fstat
00000004 g       .init	00000000 _einit
00001834  w      .vector_handler	00000000 BB_IRQHandler
00000a78 g     F .text	00000136 FLASH_EEPROM_CMD
00001834  w      .vector_handler	00000000 Break_Point_Handler
20000570 g     F .highcode	00000036 FLASH_START
0000158c g     F .text	00000028 _sbrk_r
00001744 g     F .text	0000002a _read_r
200004b2 g     F .highcode	00000014 FLASH_ROM_BEG
20000606 g     F .highcode	00000072 FLASH_CMD_ROM_ERASE
20000460 g     F .highcode	0000001e mDelaymS
00001834  w      .vector_handler	00000000 Ecall_M_Mode_Handler
00001786 g     F .text	0000000c _isatty
20000810 g     O .bss	00000001 __lock___sinit_recursive_mutex
20000800 g     O .data	00000004 _global_impure_ptr
200004f0 g     F .highcode	00000048 FLASH_ROM_ADDR
000009d6 g     F .text	00000028 _sbrk
20000106 g     F .highcode	00000010 RTC_IRQHandler
20000820 g       .bss	00000000 _ebss
00001834  w      .vector_handler	00000000 SPI_IRQHandler
20000808 g     O .bss	00000001 __lock___malloc_recursive_mutex
20000538 g     F .highcode	00000038 FLASH_ROM_WAIT
000017d4 g     O .text	00000020 __sf_fake_stderr
20000000 g       .highcode	00000000 _vector_base
00001294 g     F .text	00000002 __retarget_lock_release_recursive
00001834  w      .vector_handler	00000000 PWMX_IRQHandler
00001100 g     F .text	00000006 __sfp_lock_acquire
00001392 g     F .text	0000009e _free_r
00000000 g       .init	00000000 _start
00001792 g     F .text	0000000c _lseek
20000000 g       .highcode	00000000 _highcode_vma_start
0000169a g     F .text	00000026 _close_r
00001834  w      .vector_handler	00000000 KEYSCAN_IRQHandler
20000794 g       .data	00000000 _data_vma
20000116 g     F .highcode	00000258 SetSysClock
00001834  w      .vector_handler	00000000 USB_IRQHandler
00000d88 g     F .text	000000fe __swsetup_r
2000073a g     F .highcode	0000003e FLASH_CMD_GET_UNIQUE_ID
00001180 g     F .text	000000a6 __sfp
200006c8 g     F .highcode	00000012 FLASH_CMD_ROM_PWR
00001112 g     F .text	00000006 __sinit_lock_release
000015b4 g     F .text	00000030 __sread
00001738 g     F .text	00000006 __malloc_lock
00000fbe g     F .text	00000088 _fflush_r
00001814 g     O .text	00000020 __sf_fake_stdin
00001292 g     F .text	00000002 __retarget_lock_acquire_recursive
00001834  w      .vector_handler	00000000 I2C_IRQHandler
0000084a g     F .text	00000010 memset
20000090 g     F .highcode	00000050 main
00001290 g     F .text	00000002 __retarget_lock_init_recursive
00001668 g     F .text	00000006 __sclose
00001484 g     F .text	00000108 _malloc_r
00000004 g       .highcodelalign	00000000 _highcode_lma
00001834  w      .vector_handler	00000000 LLE_IRQHandler
00000000 g       .init	00000000 _sinit
0000166e g     F .text	0000002c _write_r
20000778 g     F .highcode	0000001a FLASH_CMD_ROM_SW_RESET
00001834  w      .vector_handler	00000000 TMR_IRQHandler
200007fc g     O .data	00000004 _impure_ptr
00000e86 g     F .text	00000138 __sflush_r
20000804 g     O .bss	00000004 Freq_LSI
00001834  w      .vector_handler	00000000 WDOG_BAT_IRQHandler
00001834  w      .vector_handler	00000000 Ecall_U_Mode_Handler
20003000 g       .stack	00000000 _eusrstack
000008aa g     F .text	0000009e GPIOA_ModeCfg
00001296 g     F .text	0000005a __swhatbuf_r
00000948 g     F .text	00000066 GetSysClock
2000047e g     F .highcode	00000034 FLASH_ROM_BEG_FF
200006da g     F .highcode	00000060 FLASH_CMD_GET_ROM_INFO
000009ae g     F .text	00000028 _write
20000804 g       .data	00000000 _edata
20000820 g       .bss	00000000 _end
20000794 g       .highcode	00000000 _highcode_vma_end
00001838 g       .dlalign	00000000 _data_lma
000015e4 g     F .text	0000004e __swrite
00001226 g     F .text	0000006a _fwalk_reent
00001106 g     F .text	00000006 __sfp_lock_release
000017f4 g     O .text	00000020 __sf_fake_stdout
0000179e g     F .text	0000000c _read
00000798  w      .text	00000000 handle_reset
000012f0 g     F .text	000000a2 __smakebuf_r
20000814 g     O .bss	00000004 __malloc_sbrk_start
000009fe g     F .text	00000030 UART_BaudRateCfg
200004c6 g     F .highcode	0000000e FLASH_ROM_END
20000818 g     O .bss	00000004 __malloc_free_list
20000678 g     F .highcode	00000050 FLASH_CMD_ROM_VERIFY
2000036e g     F .highcode	0000005e SYS_ResetExecute
2000080c g     O .bss	00000001 __lock___sfp_recursive_mutex
0000176e g     F .text	0000000c _close
0000110c g     F .text	00000006 __sinit_lock_acquire



Disassembly of section .init:

00000000 <_sinit>:
_start():
   0:	7980006f          	j	798 <handle_reset>

Disassembly of section .highcode:

20000000 <_highcode_vma_start>:
	...
_vector_base():
20000008:	00001834          	.word	0x00001834
2000000c:	200003cc          	.word	0x200003cc
20000010:	f3f9bda9          	.word	0xf3f9bda9
20000014:	00001834          	.word	0x00001834
	...
20000020:	00001834          	.word	0x00001834
20000024:	00001834          	.word	0x00001834
	...
20000030:	00001834          	.word	0x00001834
20000034:	00000000          	.word	0x00000000
20000038:	00001834          	.word	0x00001834
	...
20000044:	00001834          	.word	0x00001834
20000048:	00000000          	.word	0x00000000
2000004c:	00001834          	.word	0x00001834
20000050:	00001834          	.word	0x00001834
20000054:	00001834          	.word	0x00001834
20000058:	00001834          	.word	0x00001834
2000005c:	00000000          	.word	0x00000000
20000060:	00001834          	.word	0x00001834
	...
2000006c:	00001834          	.word	0x00001834
20000070:	20000106          	.word	0x20000106
20000074:	00001834          	.word	0x00001834
20000078:	00001834          	.word	0x00001834
2000007c:	00001834          	.word	0x00001834
20000080:	00000000          	.word	0x00000000
20000084:	00001834          	.word	0x00001834
20000088:	00000000          	.word	0x00000000
2000008c:	00001834          	.word	0x00001834

20000090 <main>:
main():
20000090:	1141                	addi	sp,sp,-16
20000092:	4511                	li	a0,4
20000094:	c606                	sw	ra,12(sp)
20000096:	e0000097          	auipc	ra,0xe0000
2000009a:	7c4080e7          	jalr	1988(ra) # 85a <HSECFG_Capacitance>
2000009e:	04a00513          	li	a0,74
200000a2:	2895                	jal	20000116 <SetSysClock>
200000a4:	400017b7          	lui	a5,0x40001
200000a8:	4721                	li	a4,8
200000aa:	0ae7ac23          	sw	a4,184(a5) # 400010b8 <_eusrstack+0x1fffe0b8>
200000ae:	4585                	li	a1,1
200000b0:	4511                	li	a0,4
200000b2:	e0000097          	auipc	ra,0xe0000
200000b6:	7f8080e7          	jalr	2040(ra) # 8aa <GPIOA_ModeCfg>
200000ba:	4521                	li	a0,8
200000bc:	458d                	li	a1,3
200000be:	e0000097          	auipc	ra,0xe0000
200000c2:	7ec080e7          	jalr	2028(ra) # 8aa <GPIOA_ModeCfg>
200000c6:	e0001097          	auipc	ra,0xe0001
200000ca:	968080e7          	jalr	-1688(ra) # a2e <UART_DefInit>
200000ce:	e0001517          	auipc	a0,0xe0001
200000d2:	6de50513          	addi	a0,a0,1758 # 17ac <_read+0xe>
200000d6:	e0001097          	auipc	ra,0xe0001
200000da:	be6080e7          	jalr	-1050(ra) # cbc <puts>
200000de:	a001                	j	200000de <main+0x4e>

200000e0 <SYS_GetClockValue>:
SYS_GetClockValue():
200000e0:	1141                	addi	sp,sp,-16
200000e2:	400017b7          	lui	a5,0x40001
200000e6:	5f98                	lw	a4,56(a5)
200000e8:	c63a                	sw	a4,12(sp)
200000ea:	5f94                	lw	a3,56(a5)
200000ec:	4732                	lw	a4,12(sp)
200000ee:	fee69ce3          	bne	a3,a4,200000e6 <SYS_GetClockValue+0x6>
200000f2:	4532                	lw	a0,12(sp)
200000f4:	0141                	addi	sp,sp,16
200000f6:	8082                	ret

200000f8 <SYS_SetPendingIRQ>:
SYS_SetPendingIRQ():
200000f8:	e000e7b7          	lui	a5,0xe000e
200000fc:	10000737          	lui	a4,0x10000
20000100:	20e7a023          	sw	a4,512(a5) # e000e200 <_eusrstack+0xc000b200>
20000104:	8082                	ret

20000106 <RTC_IRQHandler>:
RTC_IRQHandler():
20000106:	400017b7          	lui	a5,0x40001
2000010a:	03000713          	li	a4,48
2000010e:	02e78823          	sb	a4,48(a5) # 40001030 <_eusrstack+0x1fffe030>
20000112:	kernel 2
kernel 2
kernel 2
kernel 2
30200073          	mret

20000116 <SetSysClock>:
SetSysClock():
20000116:	0c000793          	li	a5,192
2000011a:	1101                	addi	sp,sp,-32
2000011c:	04f51663          	bne	a0,a5,20000168 <SetSysClock+0x52>
20000120:	08800793          	li	a5,136
20000124:	kernel 2
kernel 2
kernel 2
kernel 2
8007b7f3          	csrrc	a5,0x800,a5
20000128:	0887f793          	andi	a5,a5,136
2000012c:	c03e                	sw	a5,0(sp)
2000012e:	0001                	nop
20000130:	0001                	nop
20000132:	400017b7          	lui	a5,0x40001
20000136:	05700713          	li	a4,87
2000013a:	04e78023          	sb	a4,64(a5) # 40001040 <_eusrstack+0x1fffe040>
2000013e:	fa800713          	li	a4,-88
20000142:	04e78023          	sb	a4,64(a5)
20000146:	0001                	nop
20000148:	0001                	nop
2000014a:	0087c703          	lbu	a4,8(a5)
2000014e:	0c076713          	ori	a4,a4,192
20000152:	00e78423          	sb	a4,8(a5)
20000156:	04078023          	sb	zero,64(a5)
2000015a:	4782                	lw	a5,0(sp)
2000015c:	kernel 2
kernel 2
kernel 2
kernel 2
8007a7f3          	csrrs	a5,0x800,a5
20000160:	0001                	nop
20000162:	0001                	nop
20000164:	6105                	addi	sp,sp,32
20000166:	8082                	ret
20000168:	400017b7          	lui	a5,0x40001
2000016c:	00a7c703          	lbu	a4,10(a5) # 4000100a <_eusrstack+0x1fffe00a>
20000170:	8b11                	andi	a4,a4,4
20000172:	ef79                	bnez	a4,20000250 <SetSysClock+0x13a>
20000174:	04e7c683          	lbu	a3,78(a5)
20000178:	08800713          	li	a4,136
2000017c:	0ff6f693          	zext.b	a3,a3
20000180:	kernel 2
kernel 2
kernel 2
kernel 2
80073673          	csrrc	a2,0x800,a4
20000184:	08867613          	andi	a2,a2,136
20000188:	c232                	sw	a2,4(sp)
2000018a:	0001                	nop
2000018c:	0001                	nop
2000018e:	05700813          	li	a6,87
20000192:	05078023          	sb	a6,64(a5)
20000196:	fa800593          	li	a1,-88
2000019a:	04b78023          	sb	a1,64(a5)
2000019e:	0001                	nop
200001a0:	0001                	nop
200001a2:	04e7c603          	lbu	a2,78(a5)
200001a6:	00366613          	ori	a2,a2,3
200001aa:	04c78723          	sb	a2,78(a5)
200001ae:	00a7c603          	lbu	a2,10(a5)
200001b2:	00466613          	ori	a2,a2,4
200001b6:	00c78523          	sb	a2,10(a5)
200001ba:	04078023          	sb	zero,64(a5)
200001be:	4612                	lw	a2,4(sp)
200001c0:	kernel 2
kernel 2
kernel 2
kernel 2
80062673          	csrrs	a2,0x800,a2
200001c4:	0001                	nop
200001c6:	0001                	nop
200001c8:	0087c603          	lbu	a2,8(a5)
200001cc:	0ff67613          	zext.b	a2,a2
200001d0:	kernel 2
kernel 2
kernel 2
kernel 2
80073773          	csrrc	a4,0x800,a4
200001d4:	08877713          	andi	a4,a4,136
200001d8:	c43a                	sw	a4,8(sp)
200001da:	0001                	nop
200001dc:	0001                	nop
200001de:	05078023          	sb	a6,64(a5)
200001e2:	04b78023          	sb	a1,64(a5)
200001e6:	0001                	nop
200001e8:	0001                	nop
200001ea:	0087c703          	lbu	a4,8(a5)
200001ee:	0c076713          	ori	a4,a4,192
200001f2:	00e78423          	sb	a4,8(a5)
200001f6:	04078023          	sb	zero,64(a5)
200001fa:	47a2                	lw	a5,8(sp)
200001fc:	kernel 2
kernel 2
kernel 2
kernel 2
8007a7f3          	csrrs	a5,0x800,a5
20000200:	0001                	nop
20000202:	0001                	nop
20000204:	47a5                	li	a5,9
20000206:	0001                	nop
20000208:	17fd                	addi	a5,a5,-1
2000020a:	0ff7f793          	zext.b	a5,a5
2000020e:	ffe5                	bnez	a5,20000206 <SetSysClock+0xf0>
20000210:	08800793          	li	a5,136
20000214:	kernel 2
kernel 2
kernel 2
kernel 2
8007b7f3          	csrrc	a5,0x800,a5
20000218:	0887f793          	andi	a5,a5,136
2000021c:	c63e                	sw	a5,12(sp)
2000021e:	0001                	nop
20000220:	0001                	nop
20000222:	400017b7          	lui	a5,0x40001
20000226:	05700713          	li	a4,87
2000022a:	04e78023          	sb	a4,64(a5) # 40001040 <_eusrstack+0x1fffe040>
2000022e:	fa800713          	li	a4,-88
20000232:	04e78023          	sb	a4,64(a5)
20000236:	0001                	nop
20000238:	0001                	nop
2000023a:	00c78423          	sb	a2,8(a5)
2000023e:	04d78723          	sb	a3,78(a5)
20000242:	04078023          	sb	zero,64(a5)
20000246:	47b2                	lw	a5,12(sp)
20000248:	kernel 2
kernel 2
kernel 2
kernel 2
8007a7f3          	csrrs	a5,0x800,a5
2000024c:	0001                	nop
2000024e:	0001                	nop
20000250:	0c057793          	andi	a5,a0,192
20000254:	04000713          	li	a4,64
20000258:	08e79c63          	bne	a5,a4,200002f0 <SetSysClock+0x1da>
2000025c:	08800793          	li	a5,136
20000260:	kernel 2
kernel 2
kernel 2
kernel 2
8007b7f3          	csrrc	a5,0x800,a5
20000264:	0887f793          	andi	a5,a5,136
20000268:	c83e                	sw	a5,16(sp)
2000026a:	0001                	nop
2000026c:	0001                	nop
2000026e:	400017b7          	lui	a5,0x40001
20000272:	05700713          	li	a4,87
20000276:	04e78023          	sb	a4,64(a5) # 40001040 <_eusrstack+0x1fffe040>
2000027a:	fa800713          	li	a4,-88
2000027e:	04e78023          	sb	a4,64(a5)
20000282:	0001                	nop
20000284:	0001                	nop
20000286:	00a7c703          	lbu	a4,10(a5)
2000028a:	4685                	li	a3,1
2000028c:	01076713          	ori	a4,a4,16
20000290:	00e78523          	sb	a4,10(a5)
20000294:	40002737          	lui	a4,0x40002
20000298:	80d703a3          	sb	a3,-2041(a4) # 40001807 <_eusrstack+0x1fffe807>
2000029c:	80574683          	lbu	a3,-2043(a4)
200002a0:	0106e693          	ori	a3,a3,16
200002a4:	80d702a3          	sb	a3,-2043(a4)
200002a8:	04078023          	sb	zero,64(a5)
200002ac:	47c2                	lw	a5,16(sp)
200002ae:	kernel 2
kernel 2
kernel 2
kernel 2
8007a7f3          	csrrs	a5,0x800,a5
200002b2:	0001                	nop
200002b4:	0001                	nop
200002b6:	08800793          	li	a5,136
200002ba:	kernel 2
kernel 2
kernel 2
kernel 2
8007b7f3          	csrrc	a5,0x800,a5
200002be:	0887f793          	andi	a5,a5,136
200002c2:	ce3e                	sw	a5,28(sp)
200002c4:	0001                	nop
200002c6:	0001                	nop
200002c8:	400017b7          	lui	a5,0x40001
200002cc:	05700713          	li	a4,87
200002d0:	04e78023          	sb	a4,64(a5) # 40001040 <_eusrstack+0x1fffe040>
200002d4:	fa800713          	li	a4,-88
200002d8:	04e78023          	sb	a4,64(a5)
200002dc:	0001                	nop
200002de:	0001                	nop
200002e0:	0ff57513          	zext.b	a0,a0
200002e4:	00a78423          	sb	a0,8(a5)
200002e8:	04078023          	sb	zero,64(a5)
200002ec:	47f2                	lw	a5,28(sp)
200002ee:	b5bd                	j	2000015c <SetSysClock+0x46>
200002f0:	01f57793          	andi	a5,a0,31
200002f4:	cf9d                	beqz	a5,20000332 <SetSysClock+0x21c>
200002f6:	08800793          	li	a5,136
200002fa:	kernel 2
kernel 2
kernel 2
kernel 2
8007b7f3          	csrrc	a5,0x800,a5
200002fe:	0887f793          	andi	a5,a5,136
20000302:	ca3e                	sw	a5,20(sp)
20000304:	0001                	nop
20000306:	0001                	nop
20000308:	400017b7          	lui	a5,0x40001
2000030c:	05700713          	li	a4,87
20000310:	04e78023          	sb	a4,64(a5) # 40001040 <_eusrstack+0x1fffe040>
20000314:	fa800713          	li	a4,-88
20000318:	04e78023          	sb	a4,64(a5)
2000031c:	0001                	nop
2000031e:	0001                	nop
20000320:	40002737          	lui	a4,0x40002
20000324:	4689                	li	a3,2
20000326:	80d703a3          	sb	a3,-2041(a4) # 40001807 <_eusrstack+0x1fffe807>
2000032a:	04078023          	sb	zero,64(a5)
2000032e:	47d2                	lw	a5,20(sp)
20000330:	bfbd                	j	200002ae <SetSysClock+0x198>
20000332:	08800793          	li	a5,136
20000336:	kernel 2
kernel 2
kernel 2
kernel 2
8007b7f3          	csrrc	a5,0x800,a5
2000033a:	0887f793          	andi	a5,a5,136
2000033e:	cc3e                	sw	a5,24(sp)
20000340:	0001                	nop
20000342:	0001                	nop
20000344:	400017b7          	lui	a5,0x40001
20000348:	05700713          	li	a4,87
2000034c:	04e78023          	sb	a4,64(a5) # 40001040 <_eusrstack+0x1fffe040>
20000350:	fa800713          	li	a4,-88
20000354:	04e78023          	sb	a4,64(a5)
20000358:	0001                	nop
2000035a:	0001                	nop
2000035c:	40002737          	lui	a4,0x40002
20000360:	469d                	li	a3,7
20000362:	80d703a3          	sb	a3,-2041(a4) # 40001807 <_eusrstack+0x1fffe807>
20000366:	04078023          	sb	zero,64(a5)
2000036a:	47e2                	lw	a5,24(sp)
2000036c:	b789                	j	200002ae <SetSysClock+0x198>

2000036e <SYS_ResetExecute>:
SYS_ResetExecute():
2000036e:	1101                	addi	sp,sp,-32
20000370:	4681                	li	a3,0
20000372:	4601                	li	a2,0
20000374:	4581                	li	a1,0
20000376:	4511                	li	a0,4
20000378:	ce06                	sw	ra,28(sp)
2000037a:	e0000097          	auipc	ra,0xe0000
2000037e:	6fe080e7          	jalr	1790(ra) # a78 <FLASH_EEPROM_CMD>
20000382:	08800793          	li	a5,136
20000386:	kernel 2
kernel 2
kernel 2
kernel 2
8007b7f3          	csrrc	a5,0x800,a5
2000038a:	0887f793          	andi	a5,a5,136
2000038e:	c63e                	sw	a5,12(sp)
20000390:	0001                	nop
20000392:	0001                	nop
20000394:	400017b7          	lui	a5,0x40001
20000398:	05700713          	li	a4,87
2000039c:	04e78023          	sb	a4,64(a5) # 40001040 <_eusrstack+0x1fffe040>
200003a0:	fa800713          	li	a4,-88
200003a4:	04e78023          	sb	a4,64(a5)
200003a8:	0001                	nop
200003aa:	0001                	nop
200003ac:	0467c703          	lbu	a4,70(a5)
200003b0:	00176713          	ori	a4,a4,1
200003b4:	04e78323          	sb	a4,70(a5)
200003b8:	04078023          	sb	zero,64(a5)
200003bc:	47b2                	lw	a5,12(sp)
200003be:	kernel 2
kernel 2
kernel 2
kernel 2
8007a7f3          	csrrs	a5,0x800,a5
200003c2:	0001                	nop
200003c4:	0001                	nop
200003c6:	40f2                	lw	ra,28(sp)
200003c8:	6105                	addi	sp,sp,32
200003ca:	8082                	ret

200003cc <HardFault_Handler>:
HardFault_Handler():
200003cc:	1141                	addi	sp,sp,-16
200003ce:	4681                	li	a3,0
200003d0:	4601                	li	a2,0
200003d2:	4581                	li	a1,0
200003d4:	4511                	li	a0,4
200003d6:	e0000097          	auipc	ra,0xe0000
200003da:	6a2080e7          	jalr	1698(ra) # a78 <FLASH_EEPROM_CMD>
200003de:	08800713          	li	a4,136
200003e2:	kernel 2
kernel 2
kernel 2
kernel 2
800737f3          	csrrc	a5,0x800,a4
200003e6:	0887f793          	andi	a5,a5,136
200003ea:	c43e                	sw	a5,8(sp)
200003ec:	0001                	nop
200003ee:	0001                	nop
200003f0:	400017b7          	lui	a5,0x40001
200003f4:	05700613          	li	a2,87
200003f8:	04c78023          	sb	a2,64(a5) # 40001040 <_eusrstack+0x1fffe040>
200003fc:	fa800693          	li	a3,-88
20000400:	04d78023          	sb	a3,64(a5)
20000404:	0001                	nop
20000406:	0001                	nop
20000408:	55fd                	li	a1,-1
2000040a:	02b79623          	sh	a1,44(a5)
2000040e:	04078023          	sb	zero,64(a5)
20000412:	45a2                	lw	a1,8(sp)
20000414:	kernel 2
kernel 2
kernel 2
kernel 2
8005a5f3          	csrrs	a1,0x800,a1
20000418:	0001                	nop
2000041a:	0001                	nop
2000041c:	kernel 2
kernel 2
kernel 2
kernel 2
80073773          	csrrc	a4,0x800,a4
20000420:	08877713          	andi	a4,a4,136
20000424:	c63a                	sw	a4,12(sp)
20000426:	0001                	nop
20000428:	0001                	nop
2000042a:	04c78023          	sb	a2,64(a5)
2000042e:	04d78023          	sb	a3,64(a5)
20000432:	0001                	nop
20000434:	0001                	nop
20000436:	0467c703          	lbu	a4,70(a5)
2000043a:	00176713          	ori	a4,a4,1
2000043e:	04e78323          	sb	a4,70(a5)
20000442:	04078023          	sb	zero,64(a5)
20000446:	47b2                	lw	a5,12(sp)
20000448:	kernel 2
kernel 2
kernel 2
kernel 2
8007a7f3          	csrrs	a5,0x800,a5
2000044c:	0001                	nop
2000044e:	0001                	nop
20000450:	a001                	j	20000450 <HardFault_Handler+0x84>

20000452 <mDelayuS>:
mDelayuS():
20000452:	47e5                	li	a5,25
20000454:	kernel 2
kernel 2
kernel 2
kernel 2
02f50533          	mul	a0,a0,a5
20000458:	0001                	nop
2000045a:	157d                	addi	a0,a0,-1
2000045c:	fd75                	bnez	a0,20000458 <mDelayuS+0x6>
2000045e:	8082                	ret

20000460 <mDelaymS>:
mDelaymS():
20000460:	1141                	addi	sp,sp,-16
20000462:	c422                	sw	s0,8(sp)
20000464:	c606                	sw	ra,12(sp)
20000466:	842a                	mv	s0,a0
20000468:	147d                	addi	s0,s0,-1
2000046a:	0442                	slli	s0,s0,0x10
2000046c:	3e800513          	li	a0,1000
20000470:	8041                	srli	s0,s0,0x10
20000472:	37c5                	jal	20000452 <mDelayuS>
20000474:	f875                	bnez	s0,20000468 <mDelaymS+0x8>
20000476:	40b2                	lw	ra,12(sp)
20000478:	4422                	lw	s0,8(sp)
2000047a:	0141                	addi	sp,sp,16
2000047c:	8082                	ret

2000047e <FLASH_ROM_BEG_FF>:
FLASH_ROM_BEG_FF():
2000047e:	80040323          	sb	zero,-2042(s0)
20000482:	4715                	li	a4,5
20000484:	87a2                	mv	a5,s0
20000486:	80e40323          	sb	a4,-2042(s0)
2000048a:	0001                	nop
2000048c:	0001                	nop
2000048e:	80a40223          	sb	a0,-2044(s0)
20000492:	8067c703          	lbu	a4,-2042(a5)
20000496:	0762                	slli	a4,a4,0x18
20000498:	8761                	srai	a4,a4,0x18
2000049a:	fe074ce3          	bltz	a4,20000492 <FLASH_ROM_BEG_FF+0x14>
2000049e:	80a78223          	sb	a0,-2044(a5)
200004a2:	8722                	mv	a4,s0
200004a4:	80674783          	lbu	a5,-2042(a4)
200004a8:	07e2                	slli	a5,a5,0x18
200004aa:	87e1                	srai	a5,a5,0x18
200004ac:	fe07cce3          	bltz	a5,200004a4 <FLASH_ROM_BEG_FF+0x26>
200004b0:	8082                	ret

200004b2 <FLASH_ROM_BEG>:
FLASH_ROM_BEG():
200004b2:	80040323          	sb	zero,-2042(s0)
200004b6:	4715                	li	a4,5
200004b8:	80e40323          	sb	a4,-2042(s0)
200004bc:	0001                	nop
200004be:	0001                	nop
200004c0:	80a40223          	sb	a0,-2044(s0)
200004c4:	8082                	ret

200004c6 <FLASH_ROM_END>:
FLASH_ROM_END():
200004c6:	80640783          	lb	a5,-2042(s0)
200004ca:	fe07cee3          	bltz	a5,200004c6 <FLASH_ROM_END>
200004ce:	80040323          	sb	zero,-2042(s0)
200004d2:	8082                	ret

200004d4 <FLASH_ROM_IN>:
FLASH_ROM_IN():
200004d4:	80640783          	lb	a5,-2042(s0)
200004d8:	fe07cee3          	bltz	a5,200004d4 <FLASH_ROM_IN>
200004dc:	80444503          	lbu	a0,-2044(s0)
200004e0:	8082                	ret

200004e2 <FLASH_ROM_OUT>:
FLASH_ROM_OUT():
200004e2:	80640783          	lb	a5,-2042(s0)
200004e6:	fe07cee3          	bltz	a5,200004e2 <FLASH_ROM_OUT>
200004ea:	80a40223          	sb	a0,-2044(s0)
200004ee:	8082                	ret

200004f0 <FLASH_ROM_ADDR>:
FLASH_ROM_ADDR():
200004f0:	1141                	addi	sp,sp,-16
200004f2:	c426                	sw	s1,8(sp)
200004f4:	c24a                	sw	s2,4(sp)
200004f6:	c04e                	sw	s3,0(sp)
200004f8:	c606                	sw	ra,12(sp)
200004fa:	0bf57713          	andi	a4,a0,191
200004fe:	47ad                	li	a5,11
20000500:	89aa                	mv	s3,a0
20000502:	892e                	mv	s2,a1
20000504:	4495                	li	s1,5
20000506:	00f70663          	beq	a4,a5,20000512 <FLASH_ROM_ADDR+0x22>
2000050a:	4519                	li	a0,6
2000050c:	375d                	jal	200004b2 <FLASH_ROM_BEG>
2000050e:	3f65                	jal	200004c6 <FLASH_ROM_END>
20000510:	448d                	li	s1,3
20000512:	854e                	mv	a0,s3
20000514:	3f79                	jal	200004b2 <FLASH_ROM_BEG>
20000516:	59fd                	li	s3,-1
20000518:	14fd                	addi	s1,s1,-1
2000051a:	01349863          	bne	s1,s3,2000052a <FLASH_ROM_ADDR+0x3a>
2000051e:	40b2                	lw	ra,12(sp)
20000520:	44a2                	lw	s1,8(sp)
20000522:	4912                	lw	s2,4(sp)
20000524:	4982                	lw	s3,0(sp)
20000526:	0141                	addi	sp,sp,16
20000528:	8082                	ret
2000052a:	01095513          	srli	a0,s2,0x10
2000052e:	0ff57513          	zext.b	a0,a0
20000532:	3f45                	jal	200004e2 <FLASH_ROM_OUT>
20000534:	0922                	slli	s2,s2,0x8
20000536:	b7cd                	j	20000518 <FLASH_ROM_ADDR+0x28>

20000538 <FLASH_ROM_WAIT>:
FLASH_ROM_WAIT():
20000538:	1101                	addi	sp,sp,-32
2000053a:	cc26                	sw	s1,24(sp)
2000053c:	ce06                	sw	ra,28(sp)
2000053e:	000804b7          	lui	s1,0x80
20000542:	3751                	jal	200004c6 <FLASH_ROM_END>
20000544:	4515                	li	a0,5
20000546:	37b5                	jal	200004b2 <FLASH_ROM_BEG>
20000548:	3771                	jal	200004d4 <FLASH_ROM_IN>
2000054a:	3769                	jal	200004d4 <FLASH_ROM_IN>
2000054c:	c62a                	sw	a0,12(sp)
2000054e:	3fa5                	jal	200004c6 <FLASH_ROM_END>
20000550:	4532                	lw	a0,12(sp)
20000552:	00157793          	andi	a5,a0,1
20000556:	eb89                	bnez	a5,20000568 <FLASH_ROM_WAIT+0x30>
20000558:	00156513          	ori	a0,a0,1
2000055c:	0ff57513          	zext.b	a0,a0
20000560:	40f2                	lw	ra,28(sp)
20000562:	44e2                	lw	s1,24(sp)
20000564:	6105                	addi	sp,sp,32
20000566:	8082                	ret
20000568:	14fd                	addi	s1,s1,-1 # 7ffff <_data_lma+0x7e7c7>
2000056a:	fce9                	bnez	s1,20000544 <FLASH_ROM_WAIT+0xc>
2000056c:	4501                	li	a0,0
2000056e:	bfcd                	j	20000560 <FLASH_ROM_WAIT+0x28>

20000570 <FLASH_START>:
FLASH_START():
20000570:	1141                	addi	sp,sp,-16
20000572:	c606                	sw	ra,12(sp)
20000574:	400017b7          	lui	a5,0x40001
20000578:	05700713          	li	a4,87
2000057c:	04e78023          	sb	a4,64(a5) # 40001040 <_eusrstack+0x1fffe040>
20000580:	fa800713          	li	a4,-88
20000584:	04e78023          	sb	a4,64(a5)
20000588:	0447c703          	lbu	a4,68(a5)
2000058c:	0ff00513          	li	a0,255
20000590:	0e076713          	ori	a4,a4,224
20000594:	04e78223          	sb	a4,68(a5)
20000598:	4791                	li	a5,4
2000059a:	80f40323          	sb	a5,-2042(s0)
2000059e:	35c5                	jal	2000047e <FLASH_ROM_BEG_FF>
200005a0:	40b2                	lw	ra,12(sp)
200005a2:	0141                	addi	sp,sp,16
200005a4:	b70d                	j	200004c6 <FLASH_ROM_END>

200005a6 <FLASH_CMD_ROM_WRITE>:
FLASH_CMD_ROM_WRITE():
200005a6:	1101                	addi	sp,sp,-32
200005a8:	cc26                	sw	s1,24(sp)
200005aa:	ca4a                	sw	s2,20(sp)
200005ac:	c84e                	sw	s3,16(sp)
200005ae:	c652                	sw	s4,12(sp)
200005b0:	ce06                	sw	ra,28(sp)
200005b2:	892a                	mv	s2,a0
200005b4:	89ae                	mv	s3,a1
200005b6:	84b2                	mv	s1,a2
200005b8:	4a55                	li	s4,21
200005ba:	3f5d                	jal	20000570 <FLASH_START>
200005bc:	e891                	bnez	s1,200005d0 <FLASH_CMD_ROM_WRITE+0x2a>
200005be:	3721                	jal	200004c6 <FLASH_ROM_END>
200005c0:	40f2                	lw	ra,28(sp)
200005c2:	8526                	mv	a0,s1
200005c4:	4952                	lw	s2,20(sp)
200005c6:	44e2                	lw	s1,24(sp)
200005c8:	49c2                	lw	s3,16(sp)
200005ca:	4a32                	lw	s4,12(sp)
200005cc:	6105                	addi	sp,sp,32
200005ce:	8082                	ret
200005d0:	85ca                	mv	a1,s2
200005d2:	4509                	li	a0,2
200005d4:	3f31                	jal	200004f0 <FLASH_ROM_ADDR>
200005d6:	0991                	addi	s3,s3,4
200005d8:	ffc9a703          	lw	a4,-4(s3)
200005dc:	4791                	li	a5,4
200005de:	80e42023          	sw	a4,-2048(s0)

200005e2 <.loop247>:
200005e2:	80640703          	lb	a4,-2042(s0)
200005e6:	fe074ee3          	bltz	a4,200005e2 <.loop247>
200005ea:	81440323          	sb	s4,-2042(s0)
200005ee:	17fd                	addi	a5,a5,-1
200005f0:	fbed                	bnez	a5,200005e2 <.loop247>
200005f2:	14fd                	addi	s1,s1,-1
200005f4:	0911                	addi	s2,s2,4
200005f6:	c481                	beqz	s1,200005fe <.loop247+0x1c>
200005f8:	0ff97793          	zext.b	a5,s2
200005fc:	ffe9                	bnez	a5,200005d6 <FLASH_CMD_ROM_WRITE+0x30>
200005fe:	3f2d                	jal	20000538 <FLASH_ROM_WAIT>
20000600:	fd55                	bnez	a0,200005bc <FLASH_CMD_ROM_WRITE+0x16>
20000602:	54fd                	li	s1,-1
20000604:	bf75                	j	200005c0 <FLASH_CMD_ROM_WRITE+0x1a>

20000606 <FLASH_CMD_ROM_ERASE>:
FLASH_CMD_ROM_ERASE():
20000606:	1101                	addi	sp,sp,-32
20000608:	cc26                	sw	s1,24(sp)
2000060a:	ca4a                	sw	s2,20(sp)
2000060c:	c84e                	sw	s3,16(sp)
2000060e:	c652                	sw	s4,12(sp)
20000610:	c456                	sw	s5,8(sp)
20000612:	c25a                	sw	s6,4(sp)
20000614:	ce06                	sw	ra,28(sp)
20000616:	892a                	mv	s2,a0
20000618:	8a32                	mv	s4,a2
2000061a:	498d                	li	s3,3
2000061c:	3f91                	jal	20000570 <FLASH_START>
2000061e:	64c1                	lui	s1,0x10
20000620:	6ac1                	lui	s5,0x10
20000622:	6b05                	lui	s6,0x1
20000624:	fff48793          	addi	a5,s1,-1 # ffff <_data_lma+0xe7c7>
20000628:	0127f7b3          	and	a5,a5,s2
2000062c:	e399                	bnez	a5,20000632 <FLASH_CMD_ROM_ERASE+0x2c>
2000062e:	029a7163          	bgeu	s4,s1,20000650 <FLASH_CMD_ROM_ERASE+0x4a>
20000632:	19fd                	addi	s3,s3,-1
20000634:	8091                	srli	s1,s1,0x4
20000636:	fe0997e3          	bnez	s3,20000624 <FLASH_CMD_ROM_ERASE+0x1e>
2000063a:	3571                	jal	200004c6 <FLASH_ROM_END>
2000063c:	4501                	li	a0,0
2000063e:	40f2                	lw	ra,28(sp)
20000640:	44e2                	lw	s1,24(sp)
20000642:	4952                	lw	s2,20(sp)
20000644:	49c2                	lw	s3,16(sp)
20000646:	4a32                	lw	s4,12(sp)
20000648:	4aa2                	lw	s5,8(sp)
2000064a:	4b12                	lw	s6,4(sp)
2000064c:	6105                	addi	sp,sp,32
2000064e:	8082                	ret
20000650:	0d800513          	li	a0,216
20000654:	01548863          	beq	s1,s5,20000664 <FLASH_CMD_ROM_ERASE+0x5e>
20000658:	02000513          	li	a0,32
2000065c:	01648463          	beq	s1,s6,20000664 <FLASH_CMD_ROM_ERASE+0x5e>
20000660:	08100513          	li	a0,129
20000664:	85ca                	mv	a1,s2
20000666:	3569                	jal	200004f0 <FLASH_ROM_ADDR>
20000668:	3dc1                	jal	20000538 <FLASH_ROM_WAIT>
2000066a:	c509                	beqz	a0,20000674 <FLASH_CMD_ROM_ERASE+0x6e>
2000066c:	9926                	add	s2,s2,s1
2000066e:	409a0a33          	sub	s4,s4,s1
20000672:	bf75                	j	2000062e <FLASH_CMD_ROM_ERASE+0x28>
20000674:	557d                	li	a0,-1
20000676:	b7e1                	j	2000063e <FLASH_CMD_ROM_ERASE+0x38>

20000678 <FLASH_CMD_ROM_VERIFY>:
FLASH_CMD_ROM_VERIFY():
20000678:	1101                	addi	sp,sp,-32
2000067a:	ce06                	sw	ra,28(sp)
2000067c:	cc26                	sw	s1,24(sp)
2000067e:	ca4a                	sw	s2,20(sp)
20000680:	84b2                	mv	s1,a2
20000682:	c84e                	sw	s3,16(sp)
20000684:	c62a                	sw	a0,12(sp)
20000686:	892e                	mv	s2,a1
20000688:	35e5                	jal	20000570 <FLASH_START>
2000068a:	4532                	lw	a0,12(sp)
2000068c:	14fd                	addi	s1,s1,-1
2000068e:	59fd                	li	s3,-1
20000690:	85aa                	mv	a1,a0
20000692:	452d                	li	a0,11
20000694:	3db1                	jal	200004f0 <FLASH_ROM_ADDR>
20000696:	01349a63          	bne	s1,s3,200006aa <FLASH_CMD_ROM_VERIFY+0x32>
2000069a:	3535                	jal	200004c6 <FLASH_ROM_END>
2000069c:	40f2                	lw	ra,28(sp)
2000069e:	8526                	mv	a0,s1
200006a0:	4952                	lw	s2,20(sp)
200006a2:	44e2                	lw	s1,24(sp)
200006a4:	49c2                	lw	s3,16(sp)
200006a6:	6105                	addi	sp,sp,32
200006a8:	8082                	ret
200006aa:	352d                	jal	200004d4 <FLASH_ROM_IN>
200006ac:	0034f793          	andi	a5,s1,3
200006b0:	eb91                	bnez	a5,200006c4 <FLASH_CMD_ROM_VERIFY+0x4c>
200006b2:	80042683          	lw	a3,-2048(s0)
200006b6:	00092703          	lw	a4,0(s2)
200006ba:	00490793          	addi	a5,s2,4
200006be:	fce69ee3          	bne	a3,a4,2000069a <FLASH_CMD_ROM_VERIFY+0x22>
200006c2:	893e                	mv	s2,a5
200006c4:	14fd                	addi	s1,s1,-1
200006c6:	bfc1                	j	20000696 <FLASH_CMD_ROM_VERIFY+0x1e>

200006c8 <FLASH_CMD_ROM_PWR>:
FLASH_CMD_ROM_PWR():
200006c8:	1101                	addi	sp,sp,-32
200006ca:	ce06                	sw	ra,28(sp)
200006cc:	c62a                	sw	a0,12(sp)
200006ce:	354d                	jal	20000570 <FLASH_START>
200006d0:	4532                	lw	a0,12(sp)
200006d2:	33c5                	jal	200004b2 <FLASH_ROM_BEG>
200006d4:	40f2                	lw	ra,28(sp)
200006d6:	6105                	addi	sp,sp,32
200006d8:	b3fd                	j	200004c6 <FLASH_ROM_END>

200006da <FLASH_CMD_GET_ROM_INFO>:
FLASH_CMD_GET_ROM_INFO():
200006da:	1101                	addi	sp,sp,-32
200006dc:	ce06                	sw	ra,28(sp)
200006de:	cc26                	sw	s1,24(sp)
200006e0:	ca4a                	sw	s2,20(sp)
200006e2:	c84e                	sw	s3,16(sp)
200006e4:	c652                	sw	s4,12(sp)
200006e6:	89aa                	mv	s3,a0
200006e8:	c456                	sw	s5,8(sp)
200006ea:	892e                	mv	s2,a1
200006ec:	3551                	jal	20000570 <FLASH_START>
200006ee:	000405b7          	lui	a1,0x40
200006f2:	00b9e5b3          	or	a1,s3,a1
200006f6:	452d                	li	a0,11
200006f8:	3be5                	jal	200004f0 <FLASH_ROM_ADDR>
200006fa:	4481                	li	s1,0
200006fc:	4a8d                	li	s5,3
200006fe:	4a21                	li	s4,8
20000700:	3bd1                	jal	200004d4 <FLASH_ROM_IN>
20000702:	01549663          	bne	s1,s5,2000070e <FLASH_CMD_GET_ROM_INFO+0x34>
20000706:	80042783          	lw	a5,-2048(s0)
2000070a:	00f92023          	sw	a5,0(s2)
2000070e:	0485                	addi	s1,s1,1
20000710:	ff4498e3          	bne	s1,s4,20000700 <FLASH_CMD_GET_ROM_INFO+0x26>
20000714:	80042783          	lw	a5,-2048(s0)
20000718:	01299713          	slli	a4,s3,0x12
2000071c:	00075c63          	bgez	a4,20000734 <FLASH_CMD_GET_ROM_INFO+0x5a>
20000720:	00f91223          	sh	a5,4(s2)
20000724:	40f2                	lw	ra,28(sp)
20000726:	44e2                	lw	s1,24(sp)
20000728:	4952                	lw	s2,20(sp)
2000072a:	49c2                	lw	s3,16(sp)
2000072c:	4a32                	lw	s4,12(sp)
2000072e:	4aa2                	lw	s5,8(sp)
20000730:	6105                	addi	sp,sp,32
20000732:	bb51                	j	200004c6 <FLASH_ROM_END>
20000734:	00f92223          	sw	a5,4(s2)
20000738:	b7f5                	j	20000724 <FLASH_CMD_GET_ROM_INFO+0x4a>

2000073a <FLASH_CMD_GET_UNIQUE_ID>:
FLASH_CMD_GET_UNIQUE_ID():
2000073a:	1141                	addi	sp,sp,-16
2000073c:	c606                	sw	ra,12(sp)
2000073e:	c426                	sw	s1,8(sp)
20000740:	c24a                	sw	s2,4(sp)
20000742:	c04e                	sw	s3,0(sp)
20000744:	89ae                	mv	s3,a1
20000746:	352d                	jal	20000570 <FLASH_START>
20000748:	4581                	li	a1,0
2000074a:	04b00513          	li	a0,75
2000074e:	334d                	jal	200004f0 <FLASH_ROM_ADDR>
20000750:	44bd                	li	s1,15
20000752:	597d                	li	s2,-1
20000754:	3341                	jal	200004d4 <FLASH_ROM_IN>
20000756:	0074f793          	andi	a5,s1,7
2000075a:	97ce                	add	a5,a5,s3
2000075c:	0007c703          	lbu	a4,0(a5)
20000760:	14fd                	addi	s1,s1,-1
20000762:	8d39                	xor	a0,a0,a4
20000764:	00a78023          	sb	a0,0(a5)
20000768:	ff2496e3          	bne	s1,s2,20000754 <FLASH_CMD_GET_UNIQUE_ID+0x1a>
2000076c:	40b2                	lw	ra,12(sp)
2000076e:	44a2                	lw	s1,8(sp)
20000770:	4912                	lw	s2,4(sp)
20000772:	4982                	lw	s3,0(sp)
20000774:	0141                	addi	sp,sp,16
20000776:	bb81                	j	200004c6 <FLASH_ROM_END>

20000778 <FLASH_CMD_ROM_SW_RESET>:
FLASH_CMD_ROM_SW_RESET():
20000778:	1141                	addi	sp,sp,-16
2000077a:	c606                	sw	ra,12(sp)
2000077c:	3bd5                	jal	20000570 <FLASH_START>
2000077e:	06600513          	li	a0,102
20000782:	3b05                	jal	200004b2 <FLASH_ROM_BEG>
20000784:	3389                	jal	200004c6 <FLASH_ROM_END>
20000786:	09900513          	li	a0,153
2000078a:	3325                	jal	200004b2 <FLASH_ROM_BEG>
2000078c:	40b2                	lw	ra,12(sp)
2000078e:	0141                	addi	sp,sp,16
20000790:	bb1d                	j	200004c6 <FLASH_ROM_END>
	...

Disassembly of section .text:

00000798 <handle_reset>:
handle_reset():
     798:	20001197          	auipc	gp,0x20001
     79c:	86018193          	addi	gp,gp,-1952 # 20000ff8 <__global_pointer$>
     7a0:	20003117          	auipc	sp,0x20003
     7a4:	86010113          	addi	sp,sp,-1952 # 20003000 <_eusrstack>
     7a8:	00400513          	li	a0,4
     7ac:	20000597          	auipc	a1,0x20000
     7b0:	85458593          	addi	a1,a1,-1964 # 20000000 <_highcode_vma_start>
     7b4:	20000617          	auipc	a2,0x20000
     7b8:	fe060613          	addi	a2,a2,-32 # 20000794 <impure_data>
     7bc:	00c5fa63          	bgeu	a1,a2,7d0 <handle_reset+0x38>
     7c0:	00052283          	lw	t0,0(a0)
     7c4:	0055a023          	sw	t0,0(a1)
     7c8:	0511                	addi	a0,a0,4
     7ca:	0591                	addi	a1,a1,4
     7cc:	fec5eae3          	bltu	a1,a2,7c0 <handle_reset+0x28>
     7d0:	00001517          	auipc	a0,0x1
     7d4:	06850513          	addi	a0,a0,104 # 1838 <_data_lma>
     7d8:	20000597          	auipc	a1,0x20000
     7dc:	fbc58593          	addi	a1,a1,-68 # 20000794 <impure_data>
     7e0:	80c18613          	addi	a2,gp,-2036 # 20000804 <Freq_LSI>
     7e4:	00c5fa63          	bgeu	a1,a2,7f8 <handle_reset+0x60>
     7e8:	00052283          	lw	t0,0(a0)
     7ec:	0055a023          	sw	t0,0(a1)
     7f0:	0511                	addi	a0,a0,4
     7f2:	0591                	addi	a1,a1,4
     7f4:	fec5eae3          	bltu	a1,a2,7e8 <handle_reset+0x50>
     7f8:	80c18513          	addi	a0,gp,-2036 # 20000804 <Freq_LSI>
     7fc:	82818593          	addi	a1,gp,-2008 # 20000820 <_ebss>
     800:	00b57763          	bgeu	a0,a1,80e <handle_reset+0x76>
     804:	00052023          	sw	zero,0(a0)
     808:	0511                	addi	a0,a0,4
     80a:	feb56de3          	bltu	a0,a1,804 <handle_reset+0x6c>
     80e:	02500293          	li	t0,37
     812:	kernel 2
kernel 2
kernel 2
kernel 2
bc029073          	csrw	0xbc0,t0
     816:	428d                	li	t0,3
     818:	kernel 2
kernel 2
kernel 2
kernel 2
80429073          	csrw	0x804,t0
     81c:	4285                	li	t0,1
     81e:	kernel 2
kernel 2
kernel 2
kernel 2
bc129073          	csrw	0xbc1,t0
     822:	08800293          	li	t0,136
     826:	kernel 2
kernel 2
kernel 2
kernel 2
30029073          	csrw	mstatus,t0
     82a:	1ffff297          	auipc	t0,0x1ffff
     82e:	7d628293          	addi	t0,t0,2006 # 20000000 <_highcode_vma_start>
     832:	0032e293          	ori	t0,t0,3
     836:	kernel 2
kernel 2
kernel 2
kernel 2
30529073          	csrw	mtvec,t0
     83a:	20000297          	auipc	t0,0x20000
     83e:	85628293          	addi	t0,t0,-1962 # 20000090 <main>
     842:	kernel 2
kernel 2
kernel 2
kernel 2
34129073          	csrw	mepc,t0
     846:	kernel 2
kernel 2
kernel 2
kernel 2
30200073          	mret

0000084a <memset>:
memset():
     84a:	832a                	mv	t1,a0
     84c:	c611                	beqz	a2,858 <memset+0xe>
     84e:	00b30023          	sb	a1,0(t1)
     852:	167d                	addi	a2,a2,-1
     854:	0305                	addi	t1,t1,1
     856:	fe65                	bnez	a2,84e <memset+0x4>
     858:	8082                	ret

0000085a <HSECFG_Capacitance>:
HSECFG_Capacitance():
     85a:	40001737          	lui	a4,0x40001
     85e:	04e74783          	lbu	a5,78(a4) # 4000104e <_eusrstack+0x1fffe04e>
     862:	0512                	slli	a0,a0,0x4
     864:	1141                	addi	sp,sp,-16
     866:	8bbd                	andi	a5,a5,15
     868:	8fc9                	or	a5,a5,a0
     86a:	0ff7f793          	zext.b	a5,a5
     86e:	08800693          	li	a3,136
     872:	kernel 2
kernel 2
kernel 2
kernel 2
8006b6f3          	csrrc	a3,0x800,a3
     876:	0886f693          	andi	a3,a3,136
     87a:	c636                	sw	a3,12(sp)
     87c:	0001                	nop
     87e:	0001                	nop
     880:	05700693          	li	a3,87
     884:	04d70023          	sb	a3,64(a4)
     888:	fa800693          	li	a3,-88
     88c:	04d70023          	sb	a3,64(a4)
     890:	0001                	nop
     892:	0001                	nop
     894:	04f70723          	sb	a5,78(a4)
     898:	04070023          	sb	zero,64(a4)
     89c:	47b2                	lw	a5,12(sp)
     89e:	kernel 2
kernel 2
kernel 2
kernel 2
8007a7f3          	csrrs	a5,0x800,a5
     8a2:	0001                	nop
     8a4:	0001                	nop
     8a6:	0141                	addi	sp,sp,16
     8a8:	8082                	ret

000008aa <GPIOA_ModeCfg>:
GPIOA_ModeCfg():
     8aa:	4791                	li	a5,4
     8ac:	08b7ea63          	bltu	a5,a1,940 <GPIOA_ModeCfg+0x96>
     8b0:	00001797          	auipc	a5,0x1
     8b4:	f1078793          	addi	a5,a5,-240 # 17c0 <_read+0x22>
     8b8:	058a                	slli	a1,a1,0x2
     8ba:	95be                	add	a1,a1,a5
     8bc:	4198                	lw	a4,0(a1)
     8be:	973e                	add	a4,a4,a5
     8c0:	400017b7          	lui	a5,0x40001
     8c4:	0b478793          	addi	a5,a5,180 # 400010b4 <_eusrstack+0x1fffe0b4>
     8c8:	8702                	jr	a4
     8ca:	4394                	lw	a3,0(a5)
     8cc:	fff54513          	not	a0,a0
     8d0:	40001737          	lui	a4,0x40001
     8d4:	8ee9                	and	a3,a3,a0
     8d6:	c394                	sw	a3,0(a5)
     8d8:	0b070693          	addi	a3,a4,176 # 400010b0 <_eusrstack+0x1fffe0b0>
     8dc:	429c                	lw	a5,0(a3)
     8de:	8fe9                	and	a5,a5,a0
     8e0:	c29c                	sw	a5,0(a3)
     8e2:	0a070793          	addi	a5,a4,160
     8e6:	4398                	lw	a4,0(a5)
     8e8:	8d79                	and	a0,a0,a4
     8ea:	c388                	sw	a0,0(a5)
     8ec:	8082                	ret
     8ee:	4390                	lw	a2,0(a5)
     8f0:	fff54693          	not	a3,a0
     8f4:	40001737          	lui	a4,0x40001
     8f8:	8e75                	and	a2,a2,a3
     8fa:	c390                	sw	a2,0(a5)
     8fc:	0b070613          	addi	a2,a4,176 # 400010b0 <_eusrstack+0x1fffe0b0>
     900:	421c                	lw	a5,0(a2)
     902:	8fc9                	or	a5,a5,a0
     904:	c21c                	sw	a5,0(a2)
     906:	0a070793          	addi	a5,a4,160
     90a:	4398                	lw	a4,0(a5)
     90c:	8ef9                	and	a3,a3,a4
     90e:	c394                	sw	a3,0(a5)
     910:	8082                	ret
     912:	4394                	lw	a3,0(a5)
     914:	40001737          	lui	a4,0x40001
     918:	8ec9                	or	a3,a3,a0
     91a:	c394                	sw	a3,0(a5)
     91c:	0b070693          	addi	a3,a4,176 # 400010b0 <_eusrstack+0x1fffe0b0>
     920:	429c                	lw	a5,0(a3)
     922:	fff54513          	not	a0,a0
     926:	bf65                	j	8de <GPIOA_ModeCfg+0x34>
     928:	4394                	lw	a3,0(a5)
     92a:	fff54713          	not	a4,a0
     92e:	8f75                	and	a4,a4,a3
     930:	c398                	sw	a4,0(a5)
     932:	400017b7          	lui	a5,0x40001
     936:	0a078793          	addi	a5,a5,160 # 400010a0 <_eusrstack+0x1fffe0a0>
     93a:	4398                	lw	a4,0(a5)
     93c:	8f49                	or	a4,a4,a0
     93e:	c398                	sw	a4,0(a5)
     940:	8082                	ret
     942:	4398                	lw	a4,0(a5)
     944:	8f49                	or	a4,a4,a0
     946:	b7ed                	j	930 <GPIOA_ModeCfg+0x86>

00000948 <GetSysClock>:
GetSysClock():
     948:	400017b7          	lui	a5,0x40001
     94c:	0087c703          	lbu	a4,8(a5) # 40001008 <_eusrstack+0x1fffe008>
     950:	0c000693          	li	a3,192
     954:	0c077713          	andi	a4,a4,192
     958:	00d71563          	bne	a4,a3,962 <GetSysClock+0x1a>
     95c:	80c1a503          	lw	a0,-2036(gp) # 20000804 <Freq_LSI>
     960:	8082                	ret
     962:	0087c703          	lbu	a4,8(a5)
     966:	04000693          	li	a3,64
     96a:	0c077713          	andi	a4,a4,192
     96e:	02d71263          	bne	a4,a3,992 <GetSysClock+0x4a>
     972:	0087c683          	lbu	a3,8(a5)
     976:	02000713          	li	a4,32
     97a:	8afd                	andi	a3,a3,31
     97c:	c681                	beqz	a3,984 <GetSysClock+0x3c>
     97e:	0087c703          	lbu	a4,8(a5)
     982:	8b7d                	andi	a4,a4,31
     984:	23c34537          	lui	a0,0x23c34
     988:	60050513          	addi	a0,a0,1536 # 23c34600 <_eusrstack+0x3c31600>
     98c:	kernel 2
kernel 2
kernel 2
kernel 2
02e54533          	div	a0,a0,a4
     990:	8082                	ret
     992:	0087c683          	lbu	a3,8(a5)
     996:	02000713          	li	a4,32
     99a:	8afd                	andi	a3,a3,31
     99c:	c681                	beqz	a3,9a4 <GetSysClock+0x5c>
     99e:	0087c703          	lbu	a4,8(a5)
     9a2:	8b7d                	andi	a4,a4,31
     9a4:	01e85537          	lui	a0,0x1e85
     9a8:	80050513          	addi	a0,a0,-2048 # 1e84800 <_data_lma+0x1e82fc8>
     9ac:	b7c5                	j	98c <GetSysClock+0x44>

000009ae <_write>:
_write():
     9ae:	8532                	mv	a0,a2
     9b0:	4781                	li	a5,0
     9b2:	40003737          	lui	a4,0x40003
     9b6:	46a1                	li	a3,8
     9b8:	00a7c363          	blt	a5,a0,9be <_write+0x10>
     9bc:	8082                	ret
     9be:	40b74603          	lbu	a2,1035(a4) # 4000340b <_eusrstack+0x2000040b>
     9c2:	fed60ee3          	beq	a2,a3,9be <_write+0x10>
     9c6:	00f58633          	add	a2,a1,a5
     9ca:	00064603          	lbu	a2,0(a2)
     9ce:	0785                	addi	a5,a5,1
     9d0:	40c70423          	sb	a2,1032(a4)
     9d4:	b7d5                	j	9b8 <_write+0xa>

000009d6 <_sbrk>:
_sbrk():
     9d6:	20000697          	auipc	a3,0x20000
     9da:	e2268693          	addi	a3,a3,-478 # 200007f8 <curbrk.0>
     9de:	87aa                	mv	a5,a0
     9e0:	4288                	lw	a0,0(a3)
     9e2:	82818713          	addi	a4,gp,-2008 # 20000820 <_ebss>
     9e6:	97aa                	add	a5,a5,a0
     9e8:	00e7e963          	bltu	a5,a4,9fa <_sbrk+0x24>
     9ec:	870a                	mv	a4,sp
     9ee:	fc070713          	addi	a4,a4,-64
     9f2:	00f76463          	bltu	a4,a5,9fa <_sbrk+0x24>
     9f6:	c29c                	sw	a5,0(a3)
     9f8:	8082                	ret
     9fa:	557d                	li	a0,-1
     9fc:	8082                	ret

000009fe <UART_BaudRateCfg>:
UART_BaudRateCfg():
     9fe:	1141                	addi	sp,sp,-16
     a00:	c422                	sw	s0,8(sp)
     a02:	c606                	sw	ra,12(sp)
     a04:	842a                	mv	s0,a0
     a06:	3789                	jal	948 <GetSysClock>
     a08:	4729                	li	a4,10
     a0a:	kernel 2
kernel 2
kernel 2
kernel 2
02e507b3          	mul	a5,a0,a4
     a0e:	40b2                	lw	ra,12(sp)
     a10:	838d                	srli	a5,a5,0x3
     a12:	kernel 2
kernel 2
kernel 2
kernel 2
0287d7b3          	divu	a5,a5,s0
     a16:	4422                	lw	s0,8(sp)
     a18:	0795                	addi	a5,a5,5
     a1a:	kernel 2
kernel 2
kernel 2
kernel 2
02e7d7b3          	divu	a5,a5,a4
     a1e:	40003737          	lui	a4,0x40003
     a22:	07c2                	slli	a5,a5,0x10
     a24:	83c1                	srli	a5,a5,0x10
     a26:	40f71623          	sh	a5,1036(a4) # 4000340c <_eusrstack+0x2000040c>
     a2a:	0141                	addi	sp,sp,16
     a2c:	8082                	ret

00000a2e <UART_DefInit>:
UART_DefInit():
     a2e:	6571                	lui	a0,0x1c
     a30:	1141                	addi	sp,sp,-16
     a32:	20050513          	addi	a0,a0,512 # 1c200 <_data_lma+0x1a9c8>
     a36:	c606                	sw	ra,12(sp)
     a38:	37d9                	jal	9fe <UART_BaudRateCfg>
     a3a:	40001737          	lui	a4,0x40001
     a3e:	01a75783          	lhu	a5,26(a4) # 4000101a <_eusrstack+0x1fffe01a>
     a42:	07c2                	slli	a5,a5,0x10
     a44:	83c1                	srli	a5,a5,0x10
     a46:	fc07f793          	andi	a5,a5,-64
     a4a:	07c2                	slli	a5,a5,0x10
     a4c:	83c1                	srli	a5,a5,0x10
     a4e:	00f71d23          	sh	a5,26(a4)
     a52:	400037b7          	lui	a5,0x40003
     a56:	f8100713          	li	a4,-127
     a5a:	40e78123          	sb	a4,1026(a5) # 40003402 <_eusrstack+0x20000402>
     a5e:	470d                	li	a4,3
     a60:	40e781a3          	sb	a4,1027(a5)
     a64:	04000713          	li	a4,64
     a68:	40e780a3          	sb	a4,1025(a5)
     a6c:	4705                	li	a4,1
     a6e:	40e78723          	sb	a4,1038(a5)
     a72:	40b2                	lw	ra,12(sp)
     a74:	0141                	addi	sp,sp,16
     a76:	8082                	ret

00000a78 <FLASH_EEPROM_CMD>:
FLASH_EEPROM_CMD():
     a78:	1101                	addi	sp,sp,-32
     a7a:	872a                	mv	a4,a0
     a7c:	ce06                	sw	ra,28(sp)
     a7e:	852e                	mv	a0,a1
     a80:	cc26                	sw	s1,24(sp)
     a82:	85b2                	mv	a1,a2
     a84:	ca4a                	sw	s2,20(sp)
     a86:	8636                	mv	a2,a3
     a88:	c622                	sw	s0,12(sp)
     a8a:	40002437          	lui	s0,0x40002
     a8e:	e000e7b7          	lui	a5,0xe000e
     a92:	56fd                	li	a3,-1
     a94:	0007a903          	lw	s2,0(a5) # e000e000 <_eusrstack+0xc000b000>
     a98:	43c4                	lw	s1,4(a5)
     a9a:	18d7a023          	sw	a3,384(a5)
     a9e:	18d7a223          	sw	a3,388(a5)
     aa2:	fff70793          	addi	a5,a4,-1
     aa6:	0ff7f793          	zext.b	a5,a5
     aaa:	4689                	li	a3,2
     aac:	0af6e063          	bltu	a3,a5,b4c <FLASH_EEPROM_CMD+0xd4>
     ab0:	400017b7          	lui	a5,0x40001
     ab4:	0457c783          	lbu	a5,69(a5) # 40001045 <_eusrstack+0x1fffe045>
     ab8:	000406b7          	lui	a3,0x40
     abc:	0207f793          	andi	a5,a5,32
     ac0:	e399                	bnez	a5,ac6 <FLASH_EEPROM_CMD+0x4e>
     ac2:	0003c6b7          	lui	a3,0x3c
     ac6:	57f9                	li	a5,-2
     ac8:	04d57563          	bgeu	a0,a3,b12 <FLASH_EEPROM_CMD+0x9a>
     acc:	00c50833          	add	a6,a0,a2
     ad0:	0506e163          	bltu	a3,a6,b12 <FLASH_EEPROM_CMD+0x9a>
     ad4:	4789                	li	a5,2
     ad6:	04f71463          	bne	a4,a5,b1e <FLASH_EEPROM_CMD+0xa6>
     ada:	8209                	srli	a2,a2,0x2
     adc:	20000097          	auipc	ra,0x20000
     ae0:	aca080e7          	jalr	-1334(ra) # 200005a6 <FLASH_CMD_ROM_WRITE>
     ae4:	87aa                	mv	a5,a0
     ae6:	40001737          	lui	a4,0x40001
     aea:	05700693          	li	a3,87
     aee:	04d70023          	sb	a3,64(a4) # 40001040 <_eusrstack+0x1fffe040>
     af2:	fa800693          	li	a3,-88
     af6:	04d70023          	sb	a3,64(a4)
     afa:	04474683          	lbu	a3,68(a4)
     afe:	8ac1                	andi	a3,a3,16
     b00:	04d70223          	sb	a3,68(a4)
     b04:	e000e737          	lui	a4,0xe000e
     b08:	11272023          	sw	s2,256(a4) # e000e100 <_eusrstack+0xc000b100>
     b0c:	10972223          	sw	s1,260(a4)
     b10:	4432                	lw	s0,12(sp)
     b12:	40f2                	lw	ra,28(sp)
     b14:	44e2                	lw	s1,24(sp)
     b16:	4952                	lw	s2,20(sp)
     b18:	853e                	mv	a0,a5
     b1a:	6105                	addi	sp,sp,32
     b1c:	8082                	ret
     b1e:	4785                	li	a5,1
     b20:	00f71f63          	bne	a4,a5,b3e <FLASH_EEPROM_CMD+0xc6>
     b24:	6785                	lui	a5,0x1
     b26:	17fd                	addi	a5,a5,-1 # fff <_fflush_r+0x41>
     b28:	963e                	add	a2,a2,a5
     b2a:	8fe9                	and	a5,a5,a0
     b2c:	963e                	add	a2,a2,a5
     b2e:	77fd                	lui	a5,0xfffff
     b30:	8e7d                	and	a2,a2,a5
     b32:	8d7d                	and	a0,a0,a5
     b34:	20000097          	auipc	ra,0x20000
     b38:	ad2080e7          	jalr	-1326(ra) # 20000606 <FLASH_CMD_ROM_ERASE>
     b3c:	b765                	j	ae4 <FLASH_EEPROM_CMD+0x6c>
     b3e:	20000097          	auipc	ra,0x20000
     b42:	b3a080e7          	jalr	-1222(ra) # 20000678 <FLASH_CMD_ROM_VERIFY>
     b46:	00150793          	addi	a5,a0,1
     b4a:	bf71                	j	ae6 <FLASH_EEPROM_CMD+0x6e>
     b4c:	47b5                	li	a5,13
     b4e:	00f71a63          	bne	a4,a5,b62 <FLASH_EEPROM_CMD+0xea>
     b52:	0b900513          	li	a0,185
     b56:	20000097          	auipc	ra,0x20000
     b5a:	b72080e7          	jalr	-1166(ra) # 200006c8 <FLASH_CMD_ROM_PWR>
     b5e:	4781                	li	a5,0
     b60:	b759                	j	ae6 <FLASH_EEPROM_CMD+0x6e>
     b62:	47b1                	li	a5,12
     b64:	00f71563          	bne	a4,a5,b6e <FLASH_EEPROM_CMD+0xf6>
     b68:	0ab00513          	li	a0,171
     b6c:	b7ed                	j	b56 <FLASH_EEPROM_CMD+0xde>
     b6e:	4799                	li	a5,6
     b70:	00f71763          	bne	a4,a5,b7e <FLASH_EEPROM_CMD+0x106>
     b74:	20000097          	auipc	ra,0x20000
     b78:	b66080e7          	jalr	-1178(ra) # 200006da <FLASH_CMD_GET_ROM_INFO>
     b7c:	b7cd                	j	b5e <FLASH_EEPROM_CMD+0xe6>
     b7e:	479d                	li	a5,7
     b80:	00f71b63          	bne	a4,a5,b96 <FLASH_EEPROM_CMD+0x11e>
     b84:	0005a023          	sw	zero,0(a1)
     b88:	0005a223          	sw	zero,4(a1)
     b8c:	20000097          	auipc	ra,0x20000
     b90:	bae080e7          	jalr	-1106(ra) # 2000073a <FLASH_CMD_GET_UNIQUE_ID>
     b94:	b7e9                	j	b5e <FLASH_EEPROM_CMD+0xe6>
     b96:	4791                	li	a5,4
     b98:	00f71763          	bne	a4,a5,ba6 <FLASH_EEPROM_CMD+0x12e>
     b9c:	20000097          	auipc	ra,0x20000
     ba0:	bdc080e7          	jalr	-1060(ra) # 20000778 <FLASH_CMD_ROM_SW_RESET>
     ba4:	bf6d                	j	b5e <FLASH_EEPROM_CMD+0xe6>
     ba6:	4781                	li	a5,0
     ba8:	df1d                	beqz	a4,ae6 <FLASH_EEPROM_CMD+0x6e>
     baa:	57f1                	li	a5,-4
     bac:	bf2d                	j	ae6 <FLASH_EEPROM_CMD+0x6e>

00000bae <_puts_r>:
_puts_r():
     bae:	1101                	addi	sp,sp,-32
     bb0:	ca26                	sw	s1,20(sp)
     bb2:	ce06                	sw	ra,28(sp)
     bb4:	cc22                	sw	s0,24(sp)
     bb6:	c84a                	sw	s2,16(sp)
     bb8:	c64e                	sw	s3,12(sp)
     bba:	c452                	sw	s4,8(sp)
     bbc:	84aa                	mv	s1,a0
     bbe:	e119                	bnez	a0,bc4 <_puts_r+0x16>
     bc0:	451c                	lw	a5,8(a0)
     bc2:	9002                	ebreak
     bc4:	4d1c                	lw	a5,24(a0)
     bc6:	892e                	mv	s2,a1
     bc8:	e7a5                	bnez	a5,c30 <_puts_r+0x82>
     bca:	23b9                	jal	1118 <__sinit>
     bcc:	4c9c                	lw	a5,24(s1)
     bce:	4480                	lw	s0,8(s1)
     bd0:	c3b5                	beqz	a5,c34 <_puts_r+0x86>
     bd2:	00001797          	auipc	a5,0x1
     bd6:	c4278793          	addi	a5,a5,-958 # 1814 <__sf_fake_stdin>
     bda:	06f41063          	bne	s0,a5,c3a <_puts_r+0x8c>
     bde:	40c0                	lw	s0,4(s1)
     be0:	507c                	lw	a5,100(s0)
     be2:	8b85                	andi	a5,a5,1
     be4:	eb81                	bnez	a5,bf4 <_puts_r+0x46>
     be6:	00c45783          	lhu	a5,12(s0) # 4000200c <_eusrstack+0x1ffff00c>
     bea:	2007f793          	andi	a5,a5,512
     bee:	e399                	bnez	a5,bf4 <_puts_r+0x46>
     bf0:	4c28                	lw	a0,88(s0)
     bf2:	2545                	jal	1292 <__retarget_lock_acquire_recursive>
     bf4:	00c45783          	lhu	a5,12(s0)
     bf8:	8ba1                	andi	a5,a5,8
     bfa:	c399                	beqz	a5,c00 <_puts_r+0x52>
     bfc:	481c                	lw	a5,16(s0)
     bfe:	e7c5                	bnez	a5,ca6 <_puts_r+0xf8>
     c00:	85a2                	mv	a1,s0
     c02:	8526                	mv	a0,s1
     c04:	2251                	jal	d88 <__swsetup_r>
     c06:	c145                	beqz	a0,ca6 <_puts_r+0xf8>
     c08:	54fd                	li	s1,-1
     c0a:	507c                	lw	a5,100(s0)
     c0c:	8b85                	andi	a5,a5,1
     c0e:	eb81                	bnez	a5,c1e <_puts_r+0x70>
     c10:	00c45783          	lhu	a5,12(s0)
     c14:	2007f793          	andi	a5,a5,512
     c18:	e399                	bnez	a5,c1e <_puts_r+0x70>
     c1a:	4c28                	lw	a0,88(s0)
     c1c:	2da5                	jal	1294 <__retarget_lock_release_recursive>
     c1e:	40f2                	lw	ra,28(sp)
     c20:	4462                	lw	s0,24(sp)
     c22:	4942                	lw	s2,16(sp)
     c24:	49b2                	lw	s3,12(sp)
     c26:	4a22                	lw	s4,8(sp)
     c28:	8526                	mv	a0,s1
     c2a:	44d2                	lw	s1,20(sp)
     c2c:	6105                	addi	sp,sp,32
     c2e:	8082                	ret
     c30:	4500                	lw	s0,8(a0)
     c32:	b745                	j	bd2 <_puts_r+0x24>
     c34:	8526                	mv	a0,s1
     c36:	21cd                	jal	1118 <__sinit>
     c38:	bf69                	j	bd2 <_puts_r+0x24>
     c3a:	00001797          	auipc	a5,0x1
     c3e:	bba78793          	addi	a5,a5,-1094 # 17f4 <__sf_fake_stdout>
     c42:	00f41463          	bne	s0,a5,c4a <_puts_r+0x9c>
     c46:	4480                	lw	s0,8(s1)
     c48:	bf61                	j	be0 <_puts_r+0x32>
     c4a:	00001797          	auipc	a5,0x1
     c4e:	b8a78793          	addi	a5,a5,-1142 # 17d4 <__sf_fake_stderr>
     c52:	f8f417e3          	bne	s0,a5,be0 <_puts_r+0x32>
     c56:	44c0                	lw	s0,12(s1)
     c58:	b761                	j	be0 <_puts_r+0x32>
     c5a:	c41c                	sw	a5,8(s0)
     c5c:	0905                	addi	s2,s2,1
     c5e:	0207c963          	bltz	a5,c90 <_puts_r+0xe2>
     c62:	401c                	lw	a5,0(s0)
     c64:	00178713          	addi	a4,a5,1
     c68:	c018                	sw	a4,0(s0)
     c6a:	00b78023          	sb	a1,0(a5)
     c6e:	441c                	lw	a5,8(s0)
     c70:	00094583          	lbu	a1,0(s2)
     c74:	17fd                	addi	a5,a5,-1
     c76:	f1f5                	bnez	a1,c5a <_puts_r+0xac>
     c78:	c41c                	sw	a5,8(s0)
     c7a:	0207d963          	bgez	a5,cac <_puts_r+0xfe>
     c7e:	8622                	mv	a2,s0
     c80:	45a9                	li	a1,10
     c82:	8526                	mv	a0,s1
     c84:	2091                	jal	cc8 <__swbuf_r>
     c86:	57fd                	li	a5,-1
     c88:	f8f500e3          	beq	a0,a5,c08 <_puts_r+0x5a>
     c8c:	44a9                	li	s1,10
     c8e:	bfb5                	j	c0a <_puts_r+0x5c>
     c90:	4c18                	lw	a4,24(s0)
     c92:	00e7c463          	blt	a5,a4,c9a <_puts_r+0xec>
     c96:	fd4596e3          	bne	a1,s4,c62 <_puts_r+0xb4>
     c9a:	8622                	mv	a2,s0
     c9c:	8526                	mv	a0,s1
     c9e:	202d                	jal	cc8 <__swbuf_r>
     ca0:	fd3517e3          	bne	a0,s3,c6e <_puts_r+0xc0>
     ca4:	b795                	j	c08 <_puts_r+0x5a>
     ca6:	59fd                	li	s3,-1
     ca8:	4a29                	li	s4,10
     caa:	b7d1                	j	c6e <_puts_r+0xc0>
     cac:	401c                	lw	a5,0(s0)
     cae:	00178713          	addi	a4,a5,1
     cb2:	c018                	sw	a4,0(s0)
     cb4:	4729                	li	a4,10
     cb6:	00e78023          	sb	a4,0(a5)
     cba:	bfc9                	j	c8c <_puts_r+0xde>

00000cbc <puts>:
puts():
     cbc:	85aa                	mv	a1,a0
     cbe:	20000517          	auipc	a0,0x20000
     cc2:	b3e52503          	lw	a0,-1218(a0) # 200007fc <_impure_ptr>
     cc6:	b5e5                	j	bae <_puts_r>

00000cc8 <__swbuf_r>:
__swbuf_r():
     cc8:	1101                	addi	sp,sp,-32
     cca:	cc22                	sw	s0,24(sp)
     ccc:	ca26                	sw	s1,20(sp)
     cce:	c84a                	sw	s2,16(sp)
     cd0:	ce06                	sw	ra,28(sp)
     cd2:	c64e                	sw	s3,12(sp)
     cd4:	84aa                	mv	s1,a0
     cd6:	892e                	mv	s2,a1
     cd8:	8432                	mv	s0,a2
     cda:	c501                	beqz	a0,ce2 <__swbuf_r+0x1a>
     cdc:	4d1c                	lw	a5,24(a0)
     cde:	e391                	bnez	a5,ce2 <__swbuf_r+0x1a>
     ce0:	2925                	jal	1118 <__sinit>
     ce2:	00001797          	auipc	a5,0x1
     ce6:	b3278793          	addi	a5,a5,-1230 # 1814 <__sf_fake_stdin>
     cea:	02f41863          	bne	s0,a5,d1a <__swbuf_r+0x52>
     cee:	40c0                	lw	s0,4(s1)
     cf0:	4c1c                	lw	a5,24(s0)
     cf2:	c41c                	sw	a5,8(s0)
     cf4:	00c45783          	lhu	a5,12(s0)
     cf8:	8ba1                	andi	a5,a5,8
     cfa:	c399                	beqz	a5,d00 <__swbuf_r+0x38>
     cfc:	481c                	lw	a5,16(s0)
     cfe:	ef95                	bnez	a5,d3a <__swbuf_r+0x72>
     d00:	85a2                	mv	a1,s0
     d02:	8526                	mv	a0,s1
     d04:	2051                	jal	d88 <__swsetup_r>
     d06:	c915                	beqz	a0,d3a <__swbuf_r+0x72>
     d08:	597d                	li	s2,-1
     d0a:	40f2                	lw	ra,28(sp)
     d0c:	4462                	lw	s0,24(sp)
     d0e:	44d2                	lw	s1,20(sp)
     d10:	49b2                	lw	s3,12(sp)
     d12:	854a                	mv	a0,s2
     d14:	4942                	lw	s2,16(sp)
     d16:	6105                	addi	sp,sp,32
     d18:	8082                	ret
     d1a:	00001797          	auipc	a5,0x1
     d1e:	ada78793          	addi	a5,a5,-1318 # 17f4 <__sf_fake_stdout>
     d22:	00f41463          	bne	s0,a5,d2a <__swbuf_r+0x62>
     d26:	4480                	lw	s0,8(s1)
     d28:	b7e1                	j	cf0 <__swbuf_r+0x28>
     d2a:	00001797          	auipc	a5,0x1
     d2e:	aaa78793          	addi	a5,a5,-1366 # 17d4 <__sf_fake_stderr>
     d32:	faf41fe3          	bne	s0,a5,cf0 <__swbuf_r+0x28>
     d36:	44c0                	lw	s0,12(s1)
     d38:	bf65                	j	cf0 <__swbuf_r+0x28>
     d3a:	481c                	lw	a5,16(s0)
     d3c:	4008                	lw	a0,0(s0)
     d3e:	0ff97993          	zext.b	s3,s2
     d42:	0ff97913          	zext.b	s2,s2
     d46:	8d1d                	sub	a0,a0,a5
     d48:	485c                	lw	a5,20(s0)
     d4a:	00f54663          	blt	a0,a5,d56 <__swbuf_r+0x8e>
     d4e:	85a2                	mv	a1,s0
     d50:	8526                	mv	a0,s1
     d52:	24b5                	jal	fbe <_fflush_r>
     d54:	f955                	bnez	a0,d08 <__swbuf_r+0x40>
     d56:	441c                	lw	a5,8(s0)
     d58:	0505                	addi	a0,a0,1
     d5a:	17fd                	addi	a5,a5,-1
     d5c:	c41c                	sw	a5,8(s0)
     d5e:	401c                	lw	a5,0(s0)
     d60:	00178713          	addi	a4,a5,1
     d64:	c018                	sw	a4,0(s0)
     d66:	01378023          	sb	s3,0(a5)
     d6a:	485c                	lw	a5,20(s0)
     d6c:	00a78963          	beq	a5,a0,d7e <__swbuf_r+0xb6>
     d70:	00c45783          	lhu	a5,12(s0)
     d74:	8b85                	andi	a5,a5,1
     d76:	dbd1                	beqz	a5,d0a <__swbuf_r+0x42>
     d78:	47a9                	li	a5,10
     d7a:	f8f918e3          	bne	s2,a5,d0a <__swbuf_r+0x42>
     d7e:	85a2                	mv	a1,s0
     d80:	8526                	mv	a0,s1
     d82:	2c35                	jal	fbe <_fflush_r>
     d84:	d159                	beqz	a0,d0a <__swbuf_r+0x42>
     d86:	b749                	j	d08 <__swbuf_r+0x40>

00000d88 <__swsetup_r>:
__swsetup_r():
     d88:	1141                	addi	sp,sp,-16
     d8a:	c422                	sw	s0,8(sp)
     d8c:	c226                	sw	s1,4(sp)
     d8e:	c04a                	sw	s2,0(sp)
     d90:	c606                	sw	ra,12(sp)
     d92:	20000497          	auipc	s1,0x20000
     d96:	a6a4a483          	lw	s1,-1430(s1) # 200007fc <_impure_ptr>
     d9a:	892a                	mv	s2,a0
     d9c:	842e                	mv	s0,a1
     d9e:	c489                	beqz	s1,da8 <__swsetup_r+0x20>
     da0:	4c9c                	lw	a5,24(s1)
     da2:	e399                	bnez	a5,da8 <__swsetup_r+0x20>
     da4:	8526                	mv	a0,s1
     da6:	2e8d                	jal	1118 <__sinit>
     da8:	00001797          	auipc	a5,0x1
     dac:	a6c78793          	addi	a5,a5,-1428 # 1814 <__sf_fake_stdin>
     db0:	02f41463          	bne	s0,a5,dd8 <__swsetup_r+0x50>
     db4:	40c0                	lw	s0,4(s1)
     db6:	00c41783          	lh	a5,12(s0)
     dba:	0087f713          	andi	a4,a5,8
     dbe:	eb2d                	bnez	a4,e30 <__swsetup_r+0xa8>
     dc0:	0107f713          	andi	a4,a5,16
     dc4:	eb15                	bnez	a4,df8 <__swsetup_r+0x70>
     dc6:	4725                	li	a4,9
     dc8:	00e92023          	sw	a4,0(s2)
     dcc:	0407e793          	ori	a5,a5,64
     dd0:	00f41623          	sh	a5,12(s0)
     dd4:	557d                	li	a0,-1
     dd6:	a859                	j	e6c <__swsetup_r+0xe4>
     dd8:	00001797          	auipc	a5,0x1
     ddc:	a1c78793          	addi	a5,a5,-1508 # 17f4 <__sf_fake_stdout>
     de0:	00f41463          	bne	s0,a5,de8 <__swsetup_r+0x60>
     de4:	4480                	lw	s0,8(s1)
     de6:	bfc1                	j	db6 <__swsetup_r+0x2e>
     de8:	00001797          	auipc	a5,0x1
     dec:	9ec78793          	addi	a5,a5,-1556 # 17d4 <__sf_fake_stderr>
     df0:	fcf413e3          	bne	s0,a5,db6 <__swsetup_r+0x2e>
     df4:	44c0                	lw	s0,12(s1)
     df6:	b7c1                	j	db6 <__swsetup_r+0x2e>
     df8:	8b91                	andi	a5,a5,4
     dfa:	c78d                	beqz	a5,e24 <__swsetup_r+0x9c>
     dfc:	584c                	lw	a1,52(s0)
     dfe:	c989                	beqz	a1,e10 <__swsetup_r+0x88>
     e00:	04440793          	addi	a5,s0,68
     e04:	00f58463          	beq	a1,a5,e0c <__swsetup_r+0x84>
     e08:	854a                	mv	a0,s2
     e0a:	2361                	jal	1392 <_free_r>
     e0c:	02042a23          	sw	zero,52(s0)
     e10:	00c45783          	lhu	a5,12(s0)
     e14:	00042223          	sw	zero,4(s0)
     e18:	fdb7f793          	andi	a5,a5,-37
     e1c:	00f41623          	sh	a5,12(s0)
     e20:	481c                	lw	a5,16(s0)
     e22:	c01c                	sw	a5,0(s0)
     e24:	00c45783          	lhu	a5,12(s0)
     e28:	0087e793          	ori	a5,a5,8
     e2c:	00f41623          	sh	a5,12(s0)
     e30:	481c                	lw	a5,16(s0)
     e32:	ef81                	bnez	a5,e4a <__swsetup_r+0xc2>
     e34:	00c45783          	lhu	a5,12(s0)
     e38:	20000713          	li	a4,512
     e3c:	2807f793          	andi	a5,a5,640
     e40:	00e78563          	beq	a5,a4,e4a <__swsetup_r+0xc2>
     e44:	85a2                	mv	a1,s0
     e46:	854a                	mv	a0,s2
     e48:	2165                	jal	12f0 <__smakebuf_r>
     e4a:	00c41783          	lh	a5,12(s0)
     e4e:	0017f713          	andi	a4,a5,1
     e52:	c31d                	beqz	a4,e78 <__swsetup_r+0xf0>
     e54:	4858                	lw	a4,20(s0)
     e56:	00042423          	sw	zero,8(s0)
     e5a:	40e00733          	neg	a4,a4
     e5e:	cc18                	sw	a4,24(s0)
     e60:	4818                	lw	a4,16(s0)
     e62:	4501                	li	a0,0
     e64:	e701                	bnez	a4,e6c <__swsetup_r+0xe4>
     e66:	0807f713          	andi	a4,a5,128
     e6a:	f32d                	bnez	a4,dcc <__swsetup_r+0x44>
     e6c:	40b2                	lw	ra,12(sp)
     e6e:	4422                	lw	s0,8(sp)
     e70:	4492                	lw	s1,4(sp)
     e72:	4902                	lw	s2,0(sp)
     e74:	0141                	addi	sp,sp,16
     e76:	8082                	ret
     e78:	0027f713          	andi	a4,a5,2
     e7c:	4681                	li	a3,0
     e7e:	e311                	bnez	a4,e82 <__swsetup_r+0xfa>
     e80:	4854                	lw	a3,20(s0)
     e82:	c414                	sw	a3,8(s0)
     e84:	bff1                	j	e60 <__swsetup_r+0xd8>

00000e86 <__sflush_r>:
__sflush_r():
     e86:	00c59783          	lh	a5,12(a1)
     e8a:	1101                	addi	sp,sp,-32
     e8c:	cc22                	sw	s0,24(sp)
     e8e:	ca26                	sw	s1,20(sp)
     e90:	ce06                	sw	ra,28(sp)
     e92:	c84a                	sw	s2,16(sp)
     e94:	c64e                	sw	s3,12(sp)
     e96:	0087f713          	andi	a4,a5,8
     e9a:	84aa                	mv	s1,a0
     e9c:	842e                	mv	s0,a1
     e9e:	e769                	bnez	a4,f68 <__sflush_r+0xe2>
     ea0:	41d8                	lw	a4,4(a1)
     ea2:	00e04563          	bgtz	a4,eac <__sflush_r+0x26>
     ea6:	41b8                	lw	a4,64(a1)
     ea8:	08e05863          	blez	a4,f38 <__sflush_r+0xb2>
     eac:	5458                	lw	a4,44(s0)
     eae:	c749                	beqz	a4,f38 <__sflush_r+0xb2>
     eb0:	83b1                	srli	a5,a5,0xc
     eb2:	0004a903          	lw	s2,0(s1)
     eb6:	8b85                	andi	a5,a5,1
     eb8:	0004a023          	sw	zero,0(s1)
     ebc:	500c                	lw	a1,32(s0)
     ebe:	cbb9                	beqz	a5,f14 <__sflush_r+0x8e>
     ec0:	4870                	lw	a2,84(s0)
     ec2:	00c45783          	lhu	a5,12(s0)
     ec6:	8b91                	andi	a5,a5,4
     ec8:	c799                	beqz	a5,ed6 <__sflush_r+0x50>
     eca:	405c                	lw	a5,4(s0)
     ecc:	8e1d                	sub	a2,a2,a5
     ece:	585c                	lw	a5,52(s0)
     ed0:	c399                	beqz	a5,ed6 <__sflush_r+0x50>
     ed2:	403c                	lw	a5,64(s0)
     ed4:	8e1d                	sub	a2,a2,a5
     ed6:	545c                	lw	a5,44(s0)
     ed8:	500c                	lw	a1,32(s0)
     eda:	4681                	li	a3,0
     edc:	8526                	mv	a0,s1
     ede:	9782                	jalr	a5
     ee0:	57fd                	li	a5,-1
     ee2:	04f50d63          	beq	a0,a5,f3c <__sflush_r+0xb6>
     ee6:	481c                	lw	a5,16(s0)
     ee8:	6705                	lui	a4,0x1
     eea:	00042223          	sw	zero,4(s0)
     eee:	c01c                	sw	a5,0(s0)
     ef0:	00c45783          	lhu	a5,12(s0)
     ef4:	8ff9                	and	a5,a5,a4
     ef6:	c391                	beqz	a5,efa <__sflush_r+0x74>
     ef8:	c868                	sw	a0,84(s0)
     efa:	584c                	lw	a1,52(s0)
     efc:	0124a023          	sw	s2,0(s1)
     f00:	cd85                	beqz	a1,f38 <__sflush_r+0xb2>
     f02:	04440793          	addi	a5,s0,68
     f06:	00f58463          	beq	a1,a5,f0e <__sflush_r+0x88>
     f0a:	8526                	mv	a0,s1
     f0c:	2159                	jal	1392 <_free_r>
     f0e:	02042a23          	sw	zero,52(s0)
     f12:	a01d                	j	f38 <__sflush_r+0xb2>
     f14:	4601                	li	a2,0
     f16:	4685                	li	a3,1
     f18:	8526                	mv	a0,s1
     f1a:	9702                	jalr	a4
     f1c:	57fd                	li	a5,-1
     f1e:	862a                	mv	a2,a0
     f20:	faf511e3          	bne	a0,a5,ec2 <__sflush_r+0x3c>
     f24:	409c                	lw	a5,0(s1)
     f26:	dfd1                	beqz	a5,ec2 <__sflush_r+0x3c>
     f28:	4775                	li	a4,29
     f2a:	00e78563          	beq	a5,a4,f34 <__sflush_r+0xae>
     f2e:	4759                	li	a4,22
     f30:	06e79563          	bne	a5,a4,f9a <__sflush_r+0x114>
     f34:	0124a023          	sw	s2,0(s1)
     f38:	4501                	li	a0,0
     f3a:	a0bd                	j	fa8 <__sflush_r+0x122>
     f3c:	4098                	lw	a4,0(s1)
     f3e:	00c41783          	lh	a5,12(s0)
     f42:	cf01                	beqz	a4,f5a <__sflush_r+0xd4>
     f44:	46f5                	li	a3,29
     f46:	00d70563          	beq	a4,a3,f50 <__sflush_r+0xca>
     f4a:	46d9                	li	a3,22
     f4c:	04d71963          	bne	a4,a3,f9e <__sflush_r+0x118>
     f50:	481c                	lw	a5,16(s0)
     f52:	00042223          	sw	zero,4(s0)
     f56:	c01c                	sw	a5,0(s0)
     f58:	b74d                	j	efa <__sflush_r+0x74>
     f5a:	4818                	lw	a4,16(s0)
     f5c:	83b1                	srli	a5,a5,0xc
     f5e:	00042223          	sw	zero,4(s0)
     f62:	c018                	sw	a4,0(s0)
     f64:	8b85                	andi	a5,a5,1
     f66:	bf41                	j	ef6 <__sflush_r+0x70>
     f68:	0105a983          	lw	s3,16(a1)
     f6c:	fc0986e3          	beqz	s3,f38 <__sflush_r+0xb2>
     f70:	0005a903          	lw	s2,0(a1)
     f74:	8b8d                	andi	a5,a5,3
     f76:	0135a023          	sw	s3,0(a1)
     f7a:	41390933          	sub	s2,s2,s3
     f7e:	4701                	li	a4,0
     f80:	e391                	bnez	a5,f84 <__sflush_r+0xfe>
     f82:	49d8                	lw	a4,20(a1)
     f84:	c418                	sw	a4,8(s0)
     f86:	fb2059e3          	blez	s2,f38 <__sflush_r+0xb2>
     f8a:	541c                	lw	a5,40(s0)
     f8c:	500c                	lw	a1,32(s0)
     f8e:	86ca                	mv	a3,s2
     f90:	864e                	mv	a2,s3
     f92:	8526                	mv	a0,s1
     f94:	9782                	jalr	a5
     f96:	02a04063          	bgtz	a0,fb6 <__sflush_r+0x130>
     f9a:	00c41783          	lh	a5,12(s0)
     f9e:	0407e793          	ori	a5,a5,64
     fa2:	00f41623          	sh	a5,12(s0)
     fa6:	557d                	li	a0,-1
     fa8:	40f2                	lw	ra,28(sp)
     faa:	4462                	lw	s0,24(sp)
     fac:	44d2                	lw	s1,20(sp)
     fae:	4942                	lw	s2,16(sp)
     fb0:	49b2                	lw	s3,12(sp)
     fb2:	6105                	addi	sp,sp,32
     fb4:	8082                	ret
     fb6:	99aa                	add	s3,s3,a0
     fb8:	40a90933          	sub	s2,s2,a0
     fbc:	b7e9                	j	f86 <__sflush_r+0x100>

00000fbe <_fflush_r>:
_fflush_r():
     fbe:	499c                	lw	a5,16(a1)
     fc0:	1141                	addi	sp,sp,-16
     fc2:	c606                	sw	ra,12(sp)
     fc4:	c422                	sw	s0,8(sp)
     fc6:	c226                	sw	s1,4(sp)
     fc8:	eb81                	bnez	a5,fd8 <_fflush_r+0x1a>
     fca:	4481                	li	s1,0
     fcc:	40b2                	lw	ra,12(sp)
     fce:	4422                	lw	s0,8(sp)
     fd0:	8526                	mv	a0,s1
     fd2:	4492                	lw	s1,4(sp)
     fd4:	0141                	addi	sp,sp,16
     fd6:	8082                	ret
     fd8:	84aa                	mv	s1,a0
     fda:	842e                	mv	s0,a1
     fdc:	c501                	beqz	a0,fe4 <_fflush_r+0x26>
     fde:	4d1c                	lw	a5,24(a0)
     fe0:	e391                	bnez	a5,fe4 <_fflush_r+0x26>
     fe2:	2a1d                	jal	1118 <__sinit>
     fe4:	00001797          	auipc	a5,0x1
     fe8:	83078793          	addi	a5,a5,-2000 # 1814 <__sf_fake_stdin>
     fec:	02f41d63          	bne	s0,a5,1026 <_fflush_r+0x68>
     ff0:	40c0                	lw	s0,4(s1)
     ff2:	00c41783          	lh	a5,12(s0)
     ff6:	dbf1                	beqz	a5,fca <_fflush_r+0xc>
     ff8:	5078                	lw	a4,100(s0)
     ffa:	8b05                	andi	a4,a4,1
     ffc:	e711                	bnez	a4,1008 <_fflush_r+0x4a>
     ffe:	2007f793          	andi	a5,a5,512
    1002:	e399                	bnez	a5,1008 <_fflush_r+0x4a>
    1004:	4c28                	lw	a0,88(s0)
    1006:	2471                	jal	1292 <__retarget_lock_acquire_recursive>
    1008:	8526                	mv	a0,s1
    100a:	85a2                	mv	a1,s0
    100c:	3dad                	jal	e86 <__sflush_r>
    100e:	507c                	lw	a5,100(s0)
    1010:	84aa                	mv	s1,a0
    1012:	8b85                	andi	a5,a5,1
    1014:	ffc5                	bnez	a5,fcc <_fflush_r+0xe>
    1016:	00c45783          	lhu	a5,12(s0)
    101a:	2007f793          	andi	a5,a5,512
    101e:	f7dd                	bnez	a5,fcc <_fflush_r+0xe>
    1020:	4c28                	lw	a0,88(s0)
    1022:	2c8d                	jal	1294 <__retarget_lock_release_recursive>
    1024:	b765                	j	fcc <_fflush_r+0xe>
    1026:	00000797          	auipc	a5,0x0
    102a:	7ce78793          	addi	a5,a5,1998 # 17f4 <__sf_fake_stdout>
    102e:	00f41463          	bne	s0,a5,1036 <_fflush_r+0x78>
    1032:	4480                	lw	s0,8(s1)
    1034:	bf7d                	j	ff2 <_fflush_r+0x34>
    1036:	00000797          	auipc	a5,0x0
    103a:	79e78793          	addi	a5,a5,1950 # 17d4 <__sf_fake_stderr>
    103e:	faf41ae3          	bne	s0,a5,ff2 <_fflush_r+0x34>
    1042:	44c0                	lw	s0,12(s1)
    1044:	b77d                	j	ff2 <_fflush_r+0x34>

00001046 <std>:
std():
    1046:	1141                	addi	sp,sp,-16
    1048:	c422                	sw	s0,8(sp)
    104a:	c606                	sw	ra,12(sp)
    104c:	842a                	mv	s0,a0
    104e:	00b51623          	sh	a1,12(a0)
    1052:	00c51723          	sh	a2,14(a0)
    1056:	00052023          	sw	zero,0(a0)
    105a:	00052223          	sw	zero,4(a0)
    105e:	00052423          	sw	zero,8(a0)
    1062:	06052223          	sw	zero,100(a0)
    1066:	00052823          	sw	zero,16(a0)
    106a:	00052a23          	sw	zero,20(a0)
    106e:	00052c23          	sw	zero,24(a0)
    1072:	4621                	li	a2,8
    1074:	4581                	li	a1,0
    1076:	05c50513          	addi	a0,a0,92
    107a:	fd0ff0ef          	jal	ra,84a <memset>
    107e:	00000797          	auipc	a5,0x0
    1082:	53678793          	addi	a5,a5,1334 # 15b4 <__sread>
    1086:	d05c                	sw	a5,36(s0)
    1088:	00000797          	auipc	a5,0x0
    108c:	55c78793          	addi	a5,a5,1372 # 15e4 <__swrite>
    1090:	d41c                	sw	a5,40(s0)
    1092:	00000797          	auipc	a5,0x0
    1096:	5a078793          	addi	a5,a5,1440 # 1632 <__sseek>
    109a:	d45c                	sw	a5,44(s0)
    109c:	00000797          	auipc	a5,0x0
    10a0:	5cc78793          	addi	a5,a5,1484 # 1668 <__sclose>
    10a4:	40b2                	lw	ra,12(sp)
    10a6:	d000                	sw	s0,32(s0)
    10a8:	d81c                	sw	a5,48(s0)
    10aa:	4422                	lw	s0,8(sp)
    10ac:	0141                	addi	sp,sp,16
    10ae:	8082                	ret

000010b0 <_cleanup_r>:
_cleanup_r():
    10b0:	00000597          	auipc	a1,0x0
    10b4:	f0e58593          	addi	a1,a1,-242 # fbe <_fflush_r>
    10b8:	a2bd                	j	1226 <_fwalk_reent>

000010ba <__sfmoreglue>:
__sfmoreglue():
    10ba:	1141                	addi	sp,sp,-16
    10bc:	c226                	sw	s1,4(sp)
    10be:	06800793          	li	a5,104
    10c2:	fff58493          	addi	s1,a1,-1
    10c6:	kernel 2
kernel 2
kernel 2
kernel 2
02f484b3          	mul	s1,s1,a5
    10ca:	c04a                	sw	s2,0(sp)
    10cc:	892e                	mv	s2,a1
    10ce:	c422                	sw	s0,8(sp)
    10d0:	c606                	sw	ra,12(sp)
    10d2:	07448593          	addi	a1,s1,116
    10d6:	267d                	jal	1484 <_malloc_r>
    10d8:	842a                	mv	s0,a0
    10da:	cd01                	beqz	a0,10f2 <__sfmoreglue+0x38>
    10dc:	00052023          	sw	zero,0(a0)
    10e0:	01252223          	sw	s2,4(a0)
    10e4:	0531                	addi	a0,a0,12
    10e6:	c408                	sw	a0,8(s0)
    10e8:	06848613          	addi	a2,s1,104
    10ec:	4581                	li	a1,0
    10ee:	f5cff0ef          	jal	ra,84a <memset>
    10f2:	40b2                	lw	ra,12(sp)
    10f4:	8522                	mv	a0,s0
    10f6:	4422                	lw	s0,8(sp)
    10f8:	4492                	lw	s1,4(sp)
    10fa:	4902                	lw	s2,0(sp)
    10fc:	0141                	addi	sp,sp,16
    10fe:	8082                	ret

00001100 <__sfp_lock_acquire>:
__sfp_lock_acquire():
    1100:	81418513          	addi	a0,gp,-2028 # 2000080c <__lock___sfp_recursive_mutex>
    1104:	a279                	j	1292 <__retarget_lock_acquire_recursive>

00001106 <__sfp_lock_release>:
__sfp_lock_release():
    1106:	81418513          	addi	a0,gp,-2028 # 2000080c <__lock___sfp_recursive_mutex>
    110a:	a269                	j	1294 <__retarget_lock_release_recursive>

0000110c <__sinit_lock_acquire>:
__sinit_lock_acquire():
    110c:	81818513          	addi	a0,gp,-2024 # 20000810 <__lock___sinit_recursive_mutex>
    1110:	a249                	j	1292 <__retarget_lock_acquire_recursive>

00001112 <__sinit_lock_release>:
__sinit_lock_release():
    1112:	81818513          	addi	a0,gp,-2024 # 20000810 <__lock___sinit_recursive_mutex>
    1116:	aabd                	j	1294 <__retarget_lock_release_recursive>

00001118 <__sinit>:
__sinit():
    1118:	1141                	addi	sp,sp,-16
    111a:	c422                	sw	s0,8(sp)
    111c:	c606                	sw	ra,12(sp)
    111e:	842a                	mv	s0,a0
    1120:	37f5                	jal	110c <__sinit_lock_acquire>
    1122:	4c1c                	lw	a5,24(s0)
    1124:	c789                	beqz	a5,112e <__sinit+0x16>
    1126:	4422                	lw	s0,8(sp)
    1128:	40b2                	lw	ra,12(sp)
    112a:	0141                	addi	sp,sp,16
    112c:	b7dd                	j	1112 <__sinit_lock_release>
    112e:	00000797          	auipc	a5,0x0
    1132:	f8278793          	addi	a5,a5,-126 # 10b0 <_cleanup_r>
    1136:	d41c                	sw	a5,40(s0)
    1138:	04042423          	sw	zero,72(s0)
    113c:	04042623          	sw	zero,76(s0)
    1140:	04042823          	sw	zero,80(s0)
    1144:	8081a783          	lw	a5,-2040(gp) # 20000800 <_global_impure_ptr>
    1148:	00879463          	bne	a5,s0,1150 <__sinit+0x38>
    114c:	4785                	li	a5,1
    114e:	cc1c                	sw	a5,24(s0)
    1150:	8522                	mv	a0,s0
    1152:	203d                	jal	1180 <__sfp>
    1154:	c048                	sw	a0,4(s0)
    1156:	8522                	mv	a0,s0
    1158:	2025                	jal	1180 <__sfp>
    115a:	c408                	sw	a0,8(s0)
    115c:	8522                	mv	a0,s0
    115e:	200d                	jal	1180 <__sfp>
    1160:	c448                	sw	a0,12(s0)
    1162:	4048                	lw	a0,4(s0)
    1164:	4601                	li	a2,0
    1166:	4591                	li	a1,4
    1168:	3df9                	jal	1046 <std>
    116a:	4408                	lw	a0,8(s0)
    116c:	4605                	li	a2,1
    116e:	45a5                	li	a1,9
    1170:	3dd9                	jal	1046 <std>
    1172:	4448                	lw	a0,12(s0)
    1174:	4609                	li	a2,2
    1176:	45c9                	li	a1,18
    1178:	35f9                	jal	1046 <std>
    117a:	4785                	li	a5,1
    117c:	cc1c                	sw	a5,24(s0)
    117e:	b765                	j	1126 <__sinit+0xe>

00001180 <__sfp>:
__sfp():
    1180:	1141                	addi	sp,sp,-16
    1182:	c226                	sw	s1,4(sp)
    1184:	c04a                	sw	s2,0(sp)
    1186:	c606                	sw	ra,12(sp)
    1188:	c422                	sw	s0,8(sp)
    118a:	892a                	mv	s2,a0
    118c:	3f95                	jal	1100 <__sfp_lock_acquire>
    118e:	8081a483          	lw	s1,-2040(gp) # 20000800 <_global_impure_ptr>
    1192:	4c9c                	lw	a5,24(s1)
    1194:	e399                	bnez	a5,119a <__sfp+0x1a>
    1196:	8526                	mv	a0,s1
    1198:	3741                	jal	1118 <__sinit>
    119a:	04848493          	addi	s1,s1,72
    119e:	4480                	lw	s0,8(s1)
    11a0:	40dc                	lw	a5,4(s1)
    11a2:	17fd                	addi	a5,a5,-1
    11a4:	0007d663          	bgez	a5,11b0 <__sfp+0x30>
    11a8:	409c                	lw	a5,0(s1)
    11aa:	c3bd                	beqz	a5,1210 <__sfp+0x90>
    11ac:	4084                	lw	s1,0(s1)
    11ae:	bfc5                	j	119e <__sfp+0x1e>
    11b0:	00c41703          	lh	a4,12(s0)
    11b4:	eb39                	bnez	a4,120a <__sfp+0x8a>
    11b6:	77c1                	lui	a5,0xffff0
    11b8:	0785                	addi	a5,a5,1 # ffff0001 <_eusrstack+0xdffed001>
    11ba:	c45c                	sw	a5,12(s0)
    11bc:	05840513          	addi	a0,s0,88
    11c0:	06042223          	sw	zero,100(s0)
    11c4:	20f1                	jal	1290 <__retarget_lock_init_recursive>
    11c6:	3781                	jal	1106 <__sfp_lock_release>
    11c8:	4621                	li	a2,8
    11ca:	00042023          	sw	zero,0(s0)
    11ce:	00042423          	sw	zero,8(s0)
    11d2:	00042223          	sw	zero,4(s0)
    11d6:	00042823          	sw	zero,16(s0)
    11da:	00042a23          	sw	zero,20(s0)
    11de:	00042c23          	sw	zero,24(s0)
    11e2:	4581                	li	a1,0
    11e4:	05c40513          	addi	a0,s0,92
    11e8:	e62ff0ef          	jal	ra,84a <memset>
    11ec:	02042a23          	sw	zero,52(s0)
    11f0:	02042c23          	sw	zero,56(s0)
    11f4:	04042423          	sw	zero,72(s0)
    11f8:	04042623          	sw	zero,76(s0)
    11fc:	40b2                	lw	ra,12(sp)
    11fe:	8522                	mv	a0,s0
    1200:	4422                	lw	s0,8(sp)
    1202:	4492                	lw	s1,4(sp)
    1204:	4902                	lw	s2,0(sp)
    1206:	0141                	addi	sp,sp,16
    1208:	8082                	ret
    120a:	06840413          	addi	s0,s0,104
    120e:	bf51                	j	11a2 <__sfp+0x22>
    1210:	4591                	li	a1,4
    1212:	854a                	mv	a0,s2
    1214:	355d                	jal	10ba <__sfmoreglue>
    1216:	c088                	sw	a0,0(s1)
    1218:	842a                	mv	s0,a0
    121a:	f949                	bnez	a0,11ac <__sfp+0x2c>
    121c:	35ed                	jal	1106 <__sfp_lock_release>
    121e:	47b1                	li	a5,12
    1220:	00f92023          	sw	a5,0(s2)
    1224:	bfe1                	j	11fc <__sfp+0x7c>

00001226 <_fwalk_reent>:
_fwalk_reent():
    1226:	7179                	addi	sp,sp,-48
    1228:	d422                	sw	s0,40(sp)
    122a:	d04a                	sw	s2,32(sp)
    122c:	ce4e                	sw	s3,28(sp)
    122e:	cc52                	sw	s4,24(sp)
    1230:	c85a                	sw	s6,16(sp)
    1232:	c65e                	sw	s7,12(sp)
    1234:	d606                	sw	ra,44(sp)
    1236:	d226                	sw	s1,36(sp)
    1238:	ca56                	sw	s5,20(sp)
    123a:	892a                	mv	s2,a0
    123c:	8a2e                	mv	s4,a1
    123e:	04850413          	addi	s0,a0,72
    1242:	4981                	li	s3,0
    1244:	4b05                	li	s6,1
    1246:	5bfd                	li	s7,-1
    1248:	4404                	lw	s1,8(s0)
    124a:	00442a83          	lw	s5,4(s0)
    124e:	1afd                	addi	s5,s5,-1 # ffff <_data_lma+0xe7c7>
    1250:	020ad063          	bgez	s5,1270 <_fwalk_reent+0x4a>
    1254:	4000                	lw	s0,0(s0)
    1256:	f86d                	bnez	s0,1248 <_fwalk_reent+0x22>
    1258:	50b2                	lw	ra,44(sp)
    125a:	5422                	lw	s0,40(sp)
    125c:	5492                	lw	s1,36(sp)
    125e:	5902                	lw	s2,32(sp)
    1260:	4a62                	lw	s4,24(sp)
    1262:	4ad2                	lw	s5,20(sp)
    1264:	4b42                	lw	s6,16(sp)
    1266:	4bb2                	lw	s7,12(sp)
    1268:	854e                	mv	a0,s3
    126a:	49f2                	lw	s3,28(sp)
    126c:	6145                	addi	sp,sp,48
    126e:	8082                	ret
    1270:	00c4d783          	lhu	a5,12(s1)
    1274:	00fb7b63          	bgeu	s6,a5,128a <_fwalk_reent+0x64>
    1278:	00e49783          	lh	a5,14(s1)
    127c:	01778763          	beq	a5,s7,128a <_fwalk_reent+0x64>
    1280:	85a6                	mv	a1,s1
    1282:	854a                	mv	a0,s2
    1284:	9a02                	jalr	s4
    1286:	00a9e9b3          	or	s3,s3,a0
    128a:	06848493          	addi	s1,s1,104
    128e:	b7c1                	j	124e <_fwalk_reent+0x28>

00001290 <__retarget_lock_init_recursive>:
__retarget_lock_init_recursive():
    1290:	8082                	ret

00001292 <__retarget_lock_acquire_recursive>:
__retarget_lock_acquire_recursive():
    1292:	8082                	ret

00001294 <__retarget_lock_release_recursive>:
__retarget_lock_release_recursive():
    1294:	8082                	ret

00001296 <__swhatbuf_r>:
__swhatbuf_r():
    1296:	7159                	addi	sp,sp,-112
    1298:	d4a2                	sw	s0,104(sp)
    129a:	842e                	mv	s0,a1
    129c:	00e59583          	lh	a1,14(a1)
    12a0:	d2a6                	sw	s1,100(sp)
    12a2:	d0ca                	sw	s2,96(sp)
    12a4:	d686                	sw	ra,108(sp)
    12a6:	84b2                	mv	s1,a2
    12a8:	8936                	mv	s2,a3
    12aa:	0205d363          	bgez	a1,12d0 <__swhatbuf_r+0x3a>
    12ae:	00c45783          	lhu	a5,12(s0)
    12b2:	0807f793          	andi	a5,a5,128
    12b6:	eb8d                	bnez	a5,12e8 <__swhatbuf_r+0x52>
    12b8:	40000713          	li	a4,1024
    12bc:	50b6                	lw	ra,108(sp)
    12be:	5426                	lw	s0,104(sp)
    12c0:	00f92023          	sw	a5,0(s2)
    12c4:	c098                	sw	a4,0(s1)
    12c6:	5906                	lw	s2,96(sp)
    12c8:	5496                	lw	s1,100(sp)
    12ca:	4501                	li	a0,0
    12cc:	6165                	addi	sp,sp,112
    12ce:	8082                	ret
    12d0:	0030                	addi	a2,sp,8
    12d2:	26fd                	jal	16c0 <_fstat_r>
    12d4:	fc054de3          	bltz	a0,12ae <__swhatbuf_r+0x18>
    12d8:	4732                	lw	a4,12(sp)
    12da:	67bd                	lui	a5,0xf
    12dc:	8ff9                	and	a5,a5,a4
    12de:	7779                	lui	a4,0xffffe
    12e0:	97ba                	add	a5,a5,a4
    12e2:	0017b793          	seqz	a5,a5
    12e6:	bfc9                	j	12b8 <__swhatbuf_r+0x22>
    12e8:	4781                	li	a5,0
    12ea:	04000713          	li	a4,64
    12ee:	b7f9                	j	12bc <__swhatbuf_r+0x26>

000012f0 <__smakebuf_r>:
__smakebuf_r():
    12f0:	00c5d783          	lhu	a5,12(a1)
    12f4:	7179                	addi	sp,sp,-48
    12f6:	d422                	sw	s0,40(sp)
    12f8:	d606                	sw	ra,44(sp)
    12fa:	d226                	sw	s1,36(sp)
    12fc:	d04a                	sw	s2,32(sp)
    12fe:	ce4e                	sw	s3,28(sp)
    1300:	8b89                	andi	a5,a5,2
    1302:	842e                	mv	s0,a1
    1304:	cf91                	beqz	a5,1320 <__smakebuf_r+0x30>
    1306:	04740793          	addi	a5,s0,71
    130a:	c01c                	sw	a5,0(s0)
    130c:	c81c                	sw	a5,16(s0)
    130e:	4785                	li	a5,1
    1310:	c85c                	sw	a5,20(s0)
    1312:	50b2                	lw	ra,44(sp)
    1314:	5422                	lw	s0,40(sp)
    1316:	5492                	lw	s1,36(sp)
    1318:	5902                	lw	s2,32(sp)
    131a:	49f2                	lw	s3,28(sp)
    131c:	6145                	addi	sp,sp,48
    131e:	8082                	ret
    1320:	0074                	addi	a3,sp,12
    1322:	0030                	addi	a2,sp,8
    1324:	84aa                	mv	s1,a0
    1326:	3f85                	jal	1296 <__swhatbuf_r>
    1328:	49a2                	lw	s3,8(sp)
    132a:	892a                	mv	s2,a0
    132c:	8526                	mv	a0,s1
    132e:	85ce                	mv	a1,s3
    1330:	2a91                	jal	1484 <_malloc_r>
    1332:	ed01                	bnez	a0,134a <__smakebuf_r+0x5a>
    1334:	00c41783          	lh	a5,12(s0)
    1338:	2007f713          	andi	a4,a5,512
    133c:	fb79                	bnez	a4,1312 <__smakebuf_r+0x22>
    133e:	9bf1                	andi	a5,a5,-4
    1340:	0027e793          	ori	a5,a5,2
    1344:	00f41623          	sh	a5,12(s0)
    1348:	bf7d                	j	1306 <__smakebuf_r+0x16>
    134a:	00000797          	auipc	a5,0x0
    134e:	d6678793          	addi	a5,a5,-666 # 10b0 <_cleanup_r>
    1352:	d49c                	sw	a5,40(s1)
    1354:	00c45783          	lhu	a5,12(s0)
    1358:	c008                	sw	a0,0(s0)
    135a:	c808                	sw	a0,16(s0)
    135c:	0807e793          	ori	a5,a5,128
    1360:	00f41623          	sh	a5,12(s0)
    1364:	47b2                	lw	a5,12(sp)
    1366:	01342a23          	sw	s3,20(s0)
    136a:	cf89                	beqz	a5,1384 <__smakebuf_r+0x94>
    136c:	00e41583          	lh	a1,14(s0)
    1370:	8526                	mv	a0,s1
    1372:	2e9d                	jal	16e8 <_isatty_r>
    1374:	c901                	beqz	a0,1384 <__smakebuf_r+0x94>
    1376:	00c45783          	lhu	a5,12(s0)
    137a:	9bf1                	andi	a5,a5,-4
    137c:	0017e793          	ori	a5,a5,1
    1380:	00f41623          	sh	a5,12(s0)
    1384:	00c45783          	lhu	a5,12(s0)
    1388:	0127e533          	or	a0,a5,s2
    138c:	00a41623          	sh	a0,12(s0)
    1390:	b749                	j	1312 <__smakebuf_r+0x22>

00001392 <_free_r>:
_free_r():
    1392:	cdd1                	beqz	a1,142e <_free_r+0x9c>
    1394:	ffc5a783          	lw	a5,-4(a1)
    1398:	1101                	addi	sp,sp,-32
    139a:	cc22                	sw	s0,24(sp)
    139c:	ce06                	sw	ra,28(sp)
    139e:	ffc58413          	addi	s0,a1,-4
    13a2:	0007d363          	bgez	a5,13a8 <_free_r+0x16>
    13a6:	943e                	add	s0,s0,a5
    13a8:	c62a                	sw	a0,12(sp)
    13aa:	2679                	jal	1738 <__malloc_lock>
    13ac:	82018713          	addi	a4,gp,-2016 # 20000818 <__malloc_free_list>
    13b0:	431c                	lw	a5,0(a4)
    13b2:	4532                	lw	a0,12(sp)
    13b4:	eb81                	bnez	a5,13c4 <_free_r+0x32>
    13b6:	00042223          	sw	zero,4(s0)
    13ba:	c300                	sw	s0,0(a4)
    13bc:	4462                	lw	s0,24(sp)
    13be:	40f2                	lw	ra,28(sp)
    13c0:	6105                	addi	sp,sp,32
    13c2:	aeb5                	j	173e <__malloc_unlock>
    13c4:	00f47d63          	bgeu	s0,a5,13de <_free_r+0x4c>
    13c8:	4010                	lw	a2,0(s0)
    13ca:	00c406b3          	add	a3,s0,a2
    13ce:	00d79663          	bne	a5,a3,13da <_free_r+0x48>
    13d2:	4394                	lw	a3,0(a5)
    13d4:	43dc                	lw	a5,4(a5)
    13d6:	96b2                	add	a3,a3,a2
    13d8:	c014                	sw	a3,0(s0)
    13da:	c05c                	sw	a5,4(s0)
    13dc:	bff9                	j	13ba <_free_r+0x28>
    13de:	873e                	mv	a4,a5
    13e0:	43dc                	lw	a5,4(a5)
    13e2:	c399                	beqz	a5,13e8 <_free_r+0x56>
    13e4:	fef47de3          	bgeu	s0,a5,13de <_free_r+0x4c>
    13e8:	4314                	lw	a3,0(a4)
    13ea:	00d70633          	add	a2,a4,a3
    13ee:	00861f63          	bne	a2,s0,140c <_free_r+0x7a>
    13f2:	4010                	lw	a2,0(s0)
    13f4:	96b2                	add	a3,a3,a2
    13f6:	c314                	sw	a3,0(a4)
    13f8:	00d70633          	add	a2,a4,a3
    13fc:	fcc790e3          	bne	a5,a2,13bc <_free_r+0x2a>
    1400:	4390                	lw	a2,0(a5)
    1402:	43dc                	lw	a5,4(a5)
    1404:	96b2                	add	a3,a3,a2
    1406:	c314                	sw	a3,0(a4)
    1408:	c35c                	sw	a5,4(a4)
    140a:	bf4d                	j	13bc <_free_r+0x2a>
    140c:	00c47563          	bgeu	s0,a2,1416 <_free_r+0x84>
    1410:	47b1                	li	a5,12
    1412:	c11c                	sw	a5,0(a0)
    1414:	b765                	j	13bc <_free_r+0x2a>
    1416:	4010                	lw	a2,0(s0)
    1418:	00c406b3          	add	a3,s0,a2
    141c:	00d79663          	bne	a5,a3,1428 <_free_r+0x96>
    1420:	4394                	lw	a3,0(a5)
    1422:	43dc                	lw	a5,4(a5)
    1424:	96b2                	add	a3,a3,a2
    1426:	c014                	sw	a3,0(s0)
    1428:	c05c                	sw	a5,4(s0)
    142a:	c340                	sw	s0,4(a4)
    142c:	bf41                	j	13bc <_free_r+0x2a>
    142e:	8082                	ret

00001430 <sbrk_aligned>:
sbrk_aligned():
    1430:	1141                	addi	sp,sp,-16
    1432:	c04a                	sw	s2,0(sp)
    1434:	81c18913          	addi	s2,gp,-2020 # 20000814 <__malloc_sbrk_start>
    1438:	00092783          	lw	a5,0(s2)
    143c:	c422                	sw	s0,8(sp)
    143e:	c226                	sw	s1,4(sp)
    1440:	c606                	sw	ra,12(sp)
    1442:	84aa                	mv	s1,a0
    1444:	842e                	mv	s0,a1
    1446:	e789                	bnez	a5,1450 <sbrk_aligned+0x20>
    1448:	4581                	li	a1,0
    144a:	2289                	jal	158c <_sbrk_r>
    144c:	00a92023          	sw	a0,0(s2)
    1450:	85a2                	mv	a1,s0
    1452:	8526                	mv	a0,s1
    1454:	2a25                	jal	158c <_sbrk_r>
    1456:	597d                	li	s2,-1
    1458:	01251a63          	bne	a0,s2,146c <sbrk_aligned+0x3c>
    145c:	547d                	li	s0,-1
    145e:	40b2                	lw	ra,12(sp)
    1460:	8522                	mv	a0,s0
    1462:	4422                	lw	s0,8(sp)
    1464:	4492                	lw	s1,4(sp)
    1466:	4902                	lw	s2,0(sp)
    1468:	0141                	addi	sp,sp,16
    146a:	8082                	ret
    146c:	00350413          	addi	s0,a0,3
    1470:	9871                	andi	s0,s0,-4
    1472:	fe8506e3          	beq	a0,s0,145e <sbrk_aligned+0x2e>
    1476:	40a405b3          	sub	a1,s0,a0
    147a:	8526                	mv	a0,s1
    147c:	2a01                	jal	158c <_sbrk_r>
    147e:	ff2510e3          	bne	a0,s2,145e <sbrk_aligned+0x2e>
    1482:	bfe9                	j	145c <sbrk_aligned+0x2c>

00001484 <_malloc_r>:
_malloc_r():
    1484:	1101                	addi	sp,sp,-32
    1486:	ca26                	sw	s1,20(sp)
    1488:	00358493          	addi	s1,a1,3
    148c:	98f1                	andi	s1,s1,-4
    148e:	c84a                	sw	s2,16(sp)
    1490:	ce06                	sw	ra,28(sp)
    1492:	cc22                	sw	s0,24(sp)
    1494:	c64e                	sw	s3,12(sp)
    1496:	04a1                	addi	s1,s1,8
    1498:	47b1                	li	a5,12
    149a:	892a                	mv	s2,a0
    149c:	06f4f363          	bgeu	s1,a5,1502 <_malloc_r+0x7e>
    14a0:	44b1                	li	s1,12
    14a2:	06b4e263          	bltu	s1,a1,1506 <_malloc_r+0x82>
    14a6:	854a                	mv	a0,s2
    14a8:	2c41                	jal	1738 <__malloc_lock>
    14aa:	82018993          	addi	s3,gp,-2016 # 20000818 <__malloc_free_list>
    14ae:	0009a783          	lw	a5,0(s3)
    14b2:	843e                	mv	s0,a5
    14b4:	e425                	bnez	s0,151c <_malloc_r+0x98>
    14b6:	85a6                	mv	a1,s1
    14b8:	854a                	mv	a0,s2
    14ba:	3f9d                	jal	1430 <sbrk_aligned>
    14bc:	57fd                	li	a5,-1
    14be:	842a                	mv	s0,a0
    14c0:	0cf51463          	bne	a0,a5,1588 <_malloc_r+0x104>
    14c4:	0009a403          	lw	s0,0(s3)
    14c8:	87a2                	mv	a5,s0
    14ca:	e7d5                	bnez	a5,1576 <_malloc_r+0xf2>
    14cc:	00042983          	lw	s3,0(s0)
    14d0:	4581                	li	a1,0
    14d2:	854a                	mv	a0,s2
    14d4:	99a2                	add	s3,s3,s0
    14d6:	285d                	jal	158c <_sbrk_r>
    14d8:	0aa99263          	bne	s3,a0,157c <_malloc_r+0xf8>
    14dc:	401c                	lw	a5,0(s0)
    14de:	048d                	addi	s1,s1,3
    14e0:	8c9d                	sub	s1,s1,a5
    14e2:	98f1                	andi	s1,s1,-4
    14e4:	04a1                	addi	s1,s1,8
    14e6:	47b1                	li	a5,12
    14e8:	00f4f363          	bgeu	s1,a5,14ee <_malloc_r+0x6a>
    14ec:	44b1                	li	s1,12
    14ee:	85a6                	mv	a1,s1
    14f0:	854a                	mv	a0,s2
    14f2:	3f3d                	jal	1430 <sbrk_aligned>
    14f4:	57fd                	li	a5,-1
    14f6:	08f50363          	beq	a0,a5,157c <_malloc_r+0xf8>
    14fa:	401c                	lw	a5,0(s0)
    14fc:	97a6                	add	a5,a5,s1
    14fe:	c01c                	sw	a5,0(s0)
    1500:	a83d                	j	153e <_malloc_r+0xba>
    1502:	fa04d0e3          	bgez	s1,14a2 <_malloc_r+0x1e>
    1506:	47b1                	li	a5,12
    1508:	00f92023          	sw	a5,0(s2)
    150c:	4501                	li	a0,0
    150e:	40f2                	lw	ra,28(sp)
    1510:	4462                	lw	s0,24(sp)
    1512:	44d2                	lw	s1,20(sp)
    1514:	4942                	lw	s2,16(sp)
    1516:	49b2                	lw	s3,12(sp)
    1518:	6105                	addi	sp,sp,32
    151a:	8082                	ret
    151c:	4014                	lw	a3,0(s0)
    151e:	8e85                	sub	a3,a3,s1
    1520:	0406c863          	bltz	a3,1570 <_malloc_r+0xec>
    1524:	472d                	li	a4,11
    1526:	02d77d63          	bgeu	a4,a3,1560 <_malloc_r+0xdc>
    152a:	c004                	sw	s1,0(s0)
    152c:	00940733          	add	a4,s0,s1
    1530:	02879663          	bne	a5,s0,155c <_malloc_r+0xd8>
    1534:	00e9a023          	sw	a4,0(s3)
    1538:	405c                	lw	a5,4(s0)
    153a:	c314                	sw	a3,0(a4)
    153c:	c35c                	sw	a5,4(a4)
    153e:	854a                	mv	a0,s2
    1540:	2afd                	jal	173e <__malloc_unlock>
    1542:	00b40513          	addi	a0,s0,11
    1546:	00440793          	addi	a5,s0,4
    154a:	9961                	andi	a0,a0,-8
    154c:	40f50733          	sub	a4,a0,a5
    1550:	faf50fe3          	beq	a0,a5,150e <_malloc_r+0x8a>
    1554:	943a                	add	s0,s0,a4
    1556:	8f89                	sub	a5,a5,a0
    1558:	c01c                	sw	a5,0(s0)
    155a:	bf55                	j	150e <_malloc_r+0x8a>
    155c:	c3d8                	sw	a4,4(a5)
    155e:	bfe9                	j	1538 <_malloc_r+0xb4>
    1560:	4058                	lw	a4,4(s0)
    1562:	00879563          	bne	a5,s0,156c <_malloc_r+0xe8>
    1566:	00e9a023          	sw	a4,0(s3)
    156a:	bfd1                	j	153e <_malloc_r+0xba>
    156c:	c3d8                	sw	a4,4(a5)
    156e:	bfc1                	j	153e <_malloc_r+0xba>
    1570:	87a2                	mv	a5,s0
    1572:	4040                	lw	s0,4(s0)
    1574:	b781                	j	14b4 <_malloc_r+0x30>
    1576:	843e                	mv	s0,a5
    1578:	43dc                	lw	a5,4(a5)
    157a:	bf81                	j	14ca <_malloc_r+0x46>
    157c:	47b1                	li	a5,12
    157e:	00f92023          	sw	a5,0(s2)
    1582:	854a                	mv	a0,s2
    1584:	2a6d                	jal	173e <__malloc_unlock>
    1586:	b759                	j	150c <_malloc_r+0x88>
    1588:	c104                	sw	s1,0(a0)
    158a:	bf55                	j	153e <_malloc_r+0xba>

0000158c <_sbrk_r>:
_sbrk_r():
    158c:	1141                	addi	sp,sp,-16
    158e:	c422                	sw	s0,8(sp)
    1590:	842a                	mv	s0,a0
    1592:	852e                	mv	a0,a1
    1594:	8201a223          	sw	zero,-2012(gp) # 2000081c <errno>
    1598:	c606                	sw	ra,12(sp)
    159a:	c3cff0ef          	jal	ra,9d6 <_sbrk>
    159e:	57fd                	li	a5,-1
    15a0:	00f51663          	bne	a0,a5,15ac <_sbrk_r+0x20>
    15a4:	8241a783          	lw	a5,-2012(gp) # 2000081c <errno>
    15a8:	c391                	beqz	a5,15ac <_sbrk_r+0x20>
    15aa:	c01c                	sw	a5,0(s0)
    15ac:	40b2                	lw	ra,12(sp)
    15ae:	4422                	lw	s0,8(sp)
    15b0:	0141                	addi	sp,sp,16
    15b2:	8082                	ret

000015b4 <__sread>:
__sread():
    15b4:	1141                	addi	sp,sp,-16
    15b6:	c422                	sw	s0,8(sp)
    15b8:	842e                	mv	s0,a1
    15ba:	00e59583          	lh	a1,14(a1)
    15be:	c606                	sw	ra,12(sp)
    15c0:	2251                	jal	1744 <_read_r>
    15c2:	00054963          	bltz	a0,15d4 <__sread+0x20>
    15c6:	487c                	lw	a5,84(s0)
    15c8:	97aa                	add	a5,a5,a0
    15ca:	c87c                	sw	a5,84(s0)
    15cc:	40b2                	lw	ra,12(sp)
    15ce:	4422                	lw	s0,8(sp)
    15d0:	0141                	addi	sp,sp,16
    15d2:	8082                	ret
    15d4:	00c45783          	lhu	a5,12(s0)
    15d8:	777d                	lui	a4,0xfffff
    15da:	177d                	addi	a4,a4,-1 # ffffefff <_eusrstack+0xdfffbfff>
    15dc:	8ff9                	and	a5,a5,a4
    15de:	00f41623          	sh	a5,12(s0)
    15e2:	b7ed                	j	15cc <__sread+0x18>

000015e4 <__swrite>:
__swrite():
    15e4:	00c5d783          	lhu	a5,12(a1)
    15e8:	1101                	addi	sp,sp,-32
    15ea:	cc22                	sw	s0,24(sp)
    15ec:	ca26                	sw	s1,20(sp)
    15ee:	c84a                	sw	s2,16(sp)
    15f0:	c64e                	sw	s3,12(sp)
    15f2:	ce06                	sw	ra,28(sp)
    15f4:	1007f793          	andi	a5,a5,256
    15f8:	84aa                	mv	s1,a0
    15fa:	842e                	mv	s0,a1
    15fc:	8932                	mv	s2,a2
    15fe:	89b6                	mv	s3,a3
    1600:	c791                	beqz	a5,160c <__swrite+0x28>
    1602:	00e59583          	lh	a1,14(a1)
    1606:	4689                	li	a3,2
    1608:	4601                	li	a2,0
    160a:	2211                	jal	170e <_lseek_r>
    160c:	00c45783          	lhu	a5,12(s0)
    1610:	777d                	lui	a4,0xfffff
    1612:	177d                	addi	a4,a4,-1 # ffffefff <_eusrstack+0xdfffbfff>
    1614:	8ff9                	and	a5,a5,a4
    1616:	00e41583          	lh	a1,14(s0)
    161a:	00f41623          	sh	a5,12(s0)
    161e:	4462                	lw	s0,24(sp)
    1620:	40f2                	lw	ra,28(sp)
    1622:	86ce                	mv	a3,s3
    1624:	864a                	mv	a2,s2
    1626:	49b2                	lw	s3,12(sp)
    1628:	4942                	lw	s2,16(sp)
    162a:	8526                	mv	a0,s1
    162c:	44d2                	lw	s1,20(sp)
    162e:	6105                	addi	sp,sp,32
    1630:	a83d                	j	166e <_write_r>

00001632 <__sseek>:
__sseek():
    1632:	1141                	addi	sp,sp,-16
    1634:	c422                	sw	s0,8(sp)
    1636:	842e                	mv	s0,a1
    1638:	00e59583          	lh	a1,14(a1)
    163c:	c606                	sw	ra,12(sp)
    163e:	28c1                	jal	170e <_lseek_r>
    1640:	577d                	li	a4,-1
    1642:	00c45783          	lhu	a5,12(s0)
    1646:	00e51b63          	bne	a0,a4,165c <__sseek+0x2a>
    164a:	777d                	lui	a4,0xfffff
    164c:	177d                	addi	a4,a4,-1 # ffffefff <_eusrstack+0xdfffbfff>
    164e:	8ff9                	and	a5,a5,a4
    1650:	00f41623          	sh	a5,12(s0)
    1654:	40b2                	lw	ra,12(sp)
    1656:	4422                	lw	s0,8(sp)
    1658:	0141                	addi	sp,sp,16
    165a:	8082                	ret
    165c:	6705                	lui	a4,0x1
    165e:	8fd9                	or	a5,a5,a4
    1660:	00f41623          	sh	a5,12(s0)
    1664:	c868                	sw	a0,84(s0)
    1666:	b7fd                	j	1654 <__sseek+0x22>

00001668 <__sclose>:
__sclose():
    1668:	00e59583          	lh	a1,14(a1)
    166c:	a03d                	j	169a <_close_r>

0000166e <_write_r>:
_write_r():
    166e:	1141                	addi	sp,sp,-16
    1670:	c422                	sw	s0,8(sp)
    1672:	842a                	mv	s0,a0
    1674:	852e                	mv	a0,a1
    1676:	85b2                	mv	a1,a2
    1678:	8636                	mv	a2,a3
    167a:	8201a223          	sw	zero,-2012(gp) # 2000081c <errno>
    167e:	c606                	sw	ra,12(sp)
    1680:	b2eff0ef          	jal	ra,9ae <_write>
    1684:	57fd                	li	a5,-1
    1686:	00f51663          	bne	a0,a5,1692 <_write_r+0x24>
    168a:	8241a783          	lw	a5,-2012(gp) # 2000081c <errno>
    168e:	c391                	beqz	a5,1692 <_write_r+0x24>
    1690:	c01c                	sw	a5,0(s0)
    1692:	40b2                	lw	ra,12(sp)
    1694:	4422                	lw	s0,8(sp)
    1696:	0141                	addi	sp,sp,16
    1698:	8082                	ret

0000169a <_close_r>:
_close_r():
    169a:	1141                	addi	sp,sp,-16
    169c:	c422                	sw	s0,8(sp)
    169e:	842a                	mv	s0,a0
    16a0:	852e                	mv	a0,a1
    16a2:	8201a223          	sw	zero,-2012(gp) # 2000081c <errno>
    16a6:	c606                	sw	ra,12(sp)
    16a8:	20d9                	jal	176e <_close>
    16aa:	57fd                	li	a5,-1
    16ac:	00f51663          	bne	a0,a5,16b8 <_close_r+0x1e>
    16b0:	8241a783          	lw	a5,-2012(gp) # 2000081c <errno>
    16b4:	c391                	beqz	a5,16b8 <_close_r+0x1e>
    16b6:	c01c                	sw	a5,0(s0)
    16b8:	40b2                	lw	ra,12(sp)
    16ba:	4422                	lw	s0,8(sp)
    16bc:	0141                	addi	sp,sp,16
    16be:	8082                	ret

000016c0 <_fstat_r>:
_fstat_r():
    16c0:	1141                	addi	sp,sp,-16
    16c2:	c422                	sw	s0,8(sp)
    16c4:	842a                	mv	s0,a0
    16c6:	852e                	mv	a0,a1
    16c8:	85b2                	mv	a1,a2
    16ca:	8201a223          	sw	zero,-2012(gp) # 2000081c <errno>
    16ce:	c606                	sw	ra,12(sp)
    16d0:	206d                	jal	177a <_fstat>
    16d2:	57fd                	li	a5,-1
    16d4:	00f51663          	bne	a0,a5,16e0 <_fstat_r+0x20>
    16d8:	8241a783          	lw	a5,-2012(gp) # 2000081c <errno>
    16dc:	c391                	beqz	a5,16e0 <_fstat_r+0x20>
    16de:	c01c                	sw	a5,0(s0)
    16e0:	40b2                	lw	ra,12(sp)
    16e2:	4422                	lw	s0,8(sp)
    16e4:	0141                	addi	sp,sp,16
    16e6:	8082                	ret

000016e8 <_isatty_r>:
_isatty_r():
    16e8:	1141                	addi	sp,sp,-16
    16ea:	c422                	sw	s0,8(sp)
    16ec:	842a                	mv	s0,a0
    16ee:	852e                	mv	a0,a1
    16f0:	8201a223          	sw	zero,-2012(gp) # 2000081c <errno>
    16f4:	c606                	sw	ra,12(sp)
    16f6:	2841                	jal	1786 <_isatty>
    16f8:	57fd                	li	a5,-1
    16fa:	00f51663          	bne	a0,a5,1706 <_isatty_r+0x1e>
    16fe:	8241a783          	lw	a5,-2012(gp) # 2000081c <errno>
    1702:	c391                	beqz	a5,1706 <_isatty_r+0x1e>
    1704:	c01c                	sw	a5,0(s0)
    1706:	40b2                	lw	ra,12(sp)
    1708:	4422                	lw	s0,8(sp)
    170a:	0141                	addi	sp,sp,16
    170c:	8082                	ret

0000170e <_lseek_r>:
_lseek_r():
    170e:	1141                	addi	sp,sp,-16
    1710:	c422                	sw	s0,8(sp)
    1712:	842a                	mv	s0,a0
    1714:	852e                	mv	a0,a1
    1716:	85b2                	mv	a1,a2
    1718:	8636                	mv	a2,a3
    171a:	8201a223          	sw	zero,-2012(gp) # 2000081c <errno>
    171e:	c606                	sw	ra,12(sp)
    1720:	288d                	jal	1792 <_lseek>
    1722:	57fd                	li	a5,-1
    1724:	00f51663          	bne	a0,a5,1730 <_lseek_r+0x22>
    1728:	8241a783          	lw	a5,-2012(gp) # 2000081c <errno>
    172c:	c391                	beqz	a5,1730 <_lseek_r+0x22>
    172e:	c01c                	sw	a5,0(s0)
    1730:	40b2                	lw	ra,12(sp)
    1732:	4422                	lw	s0,8(sp)
    1734:	0141                	addi	sp,sp,16
    1736:	8082                	ret

00001738 <__malloc_lock>:
__malloc_lock():
    1738:	81018513          	addi	a0,gp,-2032 # 20000808 <__lock___malloc_recursive_mutex>
    173c:	be99                	j	1292 <__retarget_lock_acquire_recursive>

0000173e <__malloc_unlock>:
__malloc_unlock():
    173e:	81018513          	addi	a0,gp,-2032 # 20000808 <__lock___malloc_recursive_mutex>
    1742:	be89                	j	1294 <__retarget_lock_release_recursive>

00001744 <_read_r>:
_read_r():
    1744:	1141                	addi	sp,sp,-16
    1746:	c422                	sw	s0,8(sp)
    1748:	842a                	mv	s0,a0
    174a:	852e                	mv	a0,a1
    174c:	85b2                	mv	a1,a2
    174e:	8636                	mv	a2,a3
    1750:	8201a223          	sw	zero,-2012(gp) # 2000081c <errno>
    1754:	c606                	sw	ra,12(sp)
    1756:	20a1                	jal	179e <_read>
    1758:	57fd                	li	a5,-1
    175a:	00f51663          	bne	a0,a5,1766 <_read_r+0x22>
    175e:	8241a783          	lw	a5,-2012(gp) # 2000081c <errno>
    1762:	c391                	beqz	a5,1766 <_read_r+0x22>
    1764:	c01c                	sw	a5,0(s0)
    1766:	40b2                	lw	ra,12(sp)
    1768:	4422                	lw	s0,8(sp)
    176a:	0141                	addi	sp,sp,16
    176c:	8082                	ret

0000176e <_close>:
_close():
    176e:	05800793          	li	a5,88
    1772:	82f1a223          	sw	a5,-2012(gp) # 2000081c <errno>
    1776:	557d                	li	a0,-1
    1778:	8082                	ret

0000177a <_fstat>:
_fstat():
    177a:	05800793          	li	a5,88
    177e:	82f1a223          	sw	a5,-2012(gp) # 2000081c <errno>
    1782:	557d                	li	a0,-1
    1784:	8082                	ret

00001786 <_isatty>:
_isatty():
    1786:	05800793          	li	a5,88
    178a:	82f1a223          	sw	a5,-2012(gp) # 2000081c <errno>
    178e:	4501                	li	a0,0
    1790:	8082                	ret

00001792 <_lseek>:
_lseek():
    1792:	05800793          	li	a5,88
    1796:	82f1a223          	sw	a5,-2012(gp) # 2000081c <errno>
    179a:	557d                	li	a0,-1
    179c:	8082                	ret

0000179e <_read>:
_read():
    179e:	05800793          	li	a5,88
    17a2:	82f1a223          	sw	a5,-2012(gp) # 2000081c <errno>
    17a6:	557d                	li	a0,-1
    17a8:	8082                	ret
    17aa:	0000                	unimp
    17ac:	kernel 2
kernel 2
kernel 2
kernel 2
6548                	.2byte	0x6548
    17ae:	kernel 2
kernel 2
kernel 2
kernel 2
6c6c                	.2byte	0x6c6c
    17b0:	7266206f          	j	63ed6 <_data_lma+0x6269e>
    17b4:	43206d6f          	jal	s10,7be6 <_data_lma+0x63ae>
    17b8:	kernel 2
kernel 2
kernel 2
kernel 2
3548                	.2byte	0x3548
    17ba:	0d213037          	lui	zero,0xd213
    17be:	0000                	unimp
    17c0:	kernel 2
kernel 2
kernel 2
kernel 2
f10a                	.2byte	0xf10a
    17c2:	kernel 2
kernel 2
kernel 2
kernel 2
ffff                	.2byte	0xffff
    17c4:	kernel 2
kernel 2
kernel 2
kernel 2
f12e                	.2byte	0xf12e
    17c6:	kernel 2
kernel 2
kernel 2
kernel 2
ffff                	.2byte	0xffff
    17c8:	kernel 2
kernel 2
kernel 2
kernel 2
f152                	.2byte	0xf152
    17ca:	kernel 2
kernel 2
kernel 2
kernel 2
ffff                	.2byte	0xffff
    17cc:	kernel 2
kernel 2
kernel 2
kernel 2
f168                	.2byte	0xf168
    17ce:	kernel 2
kernel 2
kernel 2
kernel 2
ffff                	.2byte	0xffff
    17d0:	kernel 2
kernel 2
kernel 2
kernel 2
f182                	.2byte	0xf182
    17d2:	kernel 2
kernel 2
kernel 2
kernel 2
ffff                	.2byte	0xffff

000017d4 <__sf_fake_stderr>:
	...

000017f4 <__sf_fake_stdout>:
	...

00001814 <__sf_fake_stdin>:
	...

Disassembly of section .vector_handler:

00001834 <BB_IRQHandler>:
ENDOCE_IRQHandler():
    1834:	a001                	j	1834 <BB_IRQHandler>
